(lp0
(lp1
(lp2
(lp3
S'N'
p4
aF-0.934399999999998
aF0.6542000000000001
aF-0.7329999999999985
aa(lp5
S'H'
p6
aF-0.8174000000000007
aF0.5911999999999977
aF-1.734000000000003
aa(lp7
S'CA'
p8
aF0.2435999999999993
aF0.5962000000000003
aF0.12400000000000075
aa(lp9
S'C'
p10
aF0.49359999999999926
aF-0.8208000000000013
aF0.622999999999996
aa(lp11
S'O'
p12
aF1.0146000000000002
aF-1.020799999999997
aF1.7200000000000046
aa(lp13
S'CB'
p14
aF0.09159999999999827
aF1.5511999999999986
aF1.2989999999999982
aa(lp15
S'HA'
p16
aF1.1086000000000014
aF0.8991999999999976
aF-0.4669999999999933
aa(lp17
S'1HB'
p18
aF0.9796000000000035
aF1.4972000000000036
aF1.9299999999999984
aa(lp19
S'2HB'
p20
aF-0.027400000000001513
aF2.5691999999999995
aF0.9280000000000028
aa(lp21
S'3HB'
p22
aF-0.7843999999999994
aF1.2731999999999999
aF1.8819999999999966
aaaa(lp23
(lp24
(lp25
S'N'
p26
aF-1.3267999999999973
aF-0.1274000000000029
aF-0.020400000000006493
aa(lp27
S'H'
p28
aF-1.1518000000000002
aF0.6615999999999985
aF-0.626400000000001
aa(lp29
S'CA'
p30
aF-0.1968000000000016
aF-0.8823999999999984
aF0.505600000000004
aa(lp31
S'C'
p32
aF1.0561999999999983
aF-0.018399999999994004
aF0.5826000000000022
aa(lp33
S'O'
p34
aF1.6192000000000006
aF0.3665999999999968
aF-0.4413999999999988
aa(lp35
S'CB'
p36
aF0.06219999999999875
aF-2.1143999999999976
aF-0.34940000000000004
aa(lp37
S'HA'
p38
aF-0.444799999999992
aF-1.2024000000000057
aF1.518599999999995
aa(lp39
S'1HB'
p40
aF0.9092000000000072
aF-2.667399999999995
aF0.05560000000000113
aa(lp41
S'2HB'
p42
aF-0.8218000000000015
aF-2.751399999999998
aF-0.3474000000000047
aa(lp43
S'3HB'
p44
aF0.285200000000012
aF-1.806400000000005
aF-1.3704000000000007
aaaa(lp45
(lp46
(lp47
S'N'
p48
aF1.284399999999998
aF-0.2793999999999982
aF-0.32400000000000034
aa(lp49
S'H'
p50
aF1.3314000000000021
aF-1.2844000000000009
aF-0.40999999999999975
aa(lp51
S'CA'
p52
aF0.03640000000000043
aF0.4036000000000016
aF-0.6430000000000003
aa(lp53
S'C'
p54
aF-1.0305999999999997
aF0.11959999999999557
aF0.4070000000000004
aa(lp55
S'O'
p56
aF-1.6216000000000008
aF1.040600000000002
aF0.9700000000000001
aa(lp57
S'CB'
p58
aF-0.45660000000000167
aF-0.010399999999999875
aF-2.023
aa(lp59
S'HA'
p60
aF0.22740000000000293
aF1.476600000000002
aF-0.6439999999999998
aa(lp61
S'1HB'
p62
aF-1.3885999999999967
aF0.5076000000000007
aF-2.246
aa(lp63
S'2HB'
p64
aF0.29240000000000066
aF0.25259999999999827
aF-2.77
aa(lp65
S'3HB'
p66
aF-0.6255999999999986
aF-1.0854000000000028
aF-2.041
aaaa(lp67
(lp68
(lp69
S'N'
p70
aF0.5339999999999989
aF0.8682000000000016
aF0.838000000000001
aa(lp71
S'H'
p72
aF0.07699999999999818
aF1.6501999999999981
aF0.39099999999999824
aa(lp73
S'CA'
p74
aF0.8640000000000043
aF-0.3108000000000004
aF0.045999999999999375
aa(lp75
S'C'
p76
aF-0.35900000000000176
aF-1.1957999999999984
aF-0.16100000000000136
aa(lp77
S'O'
p78
aF-1.1159999999999997
aF-1.011800000000001
aF-1.1139999999999972
aa(lp79
S'CB'
p80
aF1.9819999999999993
aF-1.0998000000000019
aF0.7109999999999985
aa(lp81
S'HA'
p82
aF1.203000000000003
aF0.025199999999998113
aF-0.9339999999999975
aa(lp83
S'1HB'
p84
aF2.2169999999999987
aF-1.9767999999999972
aF0.10699999999999932
aa(lp85
S'2HB'
p86
aF2.868000000000002
aF-0.4718000000000018
aF0.7989999999999995
aa(lp87
S'3HB'
p88
aF1.6630000000000038
aF-1.4177999999999997
aF1.7019999999999982
aaaa(lp89
(lp90
(lp91
S'N'
p92
aF-0.20180000000000076
aF0.4044000000000006
aF1.3538000000000003
aa(lp93
S'H'
p94
aF-1.1477999999999988
aF0.05739999999999927
aF1.2847999999999995
aa(lp95
S'CA'
p96
aF0.7732000000000007
aF0.0113999999999999
aF0.3427999999999994
aa(lp97
S'C'
p98
aF0.2161999999999985
aF0.19940000000000052
aF-1.0622
aa(lp99
S'O'
p100
aF0.3602000000000004
aF-0.6726000000000003
aF-1.9191999999999994
aa(lp101
S'CB'
p102
aF1.2011999999999978
aF-1.4336000000000004
aF0.5528000000000002
aa(lp103
S'HA'
p104
aF1.6452000000000004
aF0.6574000000000007
aF0.44579999999999914
aa(lp105
S'1HB'
p106
aF1.9291999999999994
aF-1.7116
aF-0.20920000000000022
aa(lp107
S'2HB'
p108
aF1.6512000000000007
aF-1.5396000000000003
aF1.5407999999999997
aa(lp109
S'3HB'
p110
aF0.33219999999999816
aF-2.0846
aF0.4788000000000004
aaaa(lp111
(lp112
(lp113
S'N'
p114
aF0.6619999999999961
aF-0.23260000000000006
aF-0.8638000000000032
aa(lp115
S'H'
p116
aF1.1849999999999994
aF0.2064
aF-1.608800000000001
aa(lp117
S'CA'
p118
aF-0.5629999999999982
aF0.39739999999999986
aF-0.3888000000000018
aa(lp119
S'C'
p120
aF-1.0109999999999986
aF-0.1995999999999997
aF0.9382000000000035
aa(lp121
S'O'
p122
aF-0.2729999999999989
aF-0.1716000000000001
aF1.9232000000000027
aa(lp123
S'CB'
p124
aF-1.6659999999999997
aF0.2624000000000001
aF-1.4288000000000012
aa(lp125
S'HA'
p126
aF-0.35899999999999743
aF1.4564
aF-0.22680000000000283
aa(lp127
S'1HB'
p128
aF-2.5749999999999984
aF0.7384000000000001
aF-1.0598000000000014
aa(lp129
S'2HB'
p130
aF-1.354000000000002
aF0.7453999999999997
aF-2.354800000000003
aa(lp131
S'3HB'
p132
aF-1.8600000000000023
aF-0.7925999999999996
aF-1.6178000000000012
aaaa(lp133
(lp134
(lp135
S'N'
p136
aF-1.3061999999999991
aF0.007199999999999598
aF-0.38440000000000013
aa(lp137
S'H'
p138
aF-1.6581999999999995
aF0.9352000000000004
aF-0.19540000000000007
aa(lp139
S'CA'
p140
aF-0.24120000000000116
aF-0.5327999999999996
aF0.45160000000000017
aa(lp141
S'C'
p142
aF1.1118000000000001
aF-0.41980000000000006
aF-0.23839999999999933
aa(lp143
S'O'
p144
aF2.0937999999999994
aF0.01019999999999972
aF0.3665999999999993
aa(lp145
S'CB'
p146
aF-0.5331999999999991
aF-1.9828000000000023
aF0.8096000000000008
aa(lp147
S'HA'
p148
aF-0.19919999999999957
aF0.055199999999997876
aF1.3686
aa(lp149
S'1HB'
p150
aF0.2707999999999994
aF-2.3727999999999994
aF1.4346000000000008
aa(lp151
S'2HB'
p152
aF-1.4762000000000008
aF-2.040800000000002
aF1.3535999999999995
aa(lp153
S'3HB'
p154
aF-0.6031999999999994
aF-2.5758000000000023
aF-0.10139999999997534
aaaa(lp155
(lp156
(lp157
S'N'
p158
aF1.2121999999999997
aF0.2559999999999995
aF-0.4311999999999969
aa(lp159
S'H'
p160
aF1.3282000000000003
aF-0.14599999999999794
aF0.4887999999999977
aa(lp161
S'CA'
p162
aF-0.13379999999999992
aF0.461999999999999
aF-0.9512
aa(lp163
S'C'
p164
aF-1.1578
aF-0.3449999999999996
aF-0.164200000000001
aa(lp165
S'O'
p166
aF-1.2488000000000001
aF-0.227000000000001
aF1.0578000000000003
aa(lp167
S'CB'
p168
aF-0.19280000000000008
aF0.09500000000000174
aF-2.427199999999999
aa(lp169
S'HA'
p170
aF-0.38280000000000003
aF1.5170000000000023
aF-0.8391999999999982
aa(lp171
S'1HB'
p172
aF-1.2048
aF0.2540000000000006
aF-2.8012000000000015
aa(lp173
S'2HB'
p174
aF0.5032000000000001
aF0.7209999999999994
aF-2.9861999999999966
aa(lp175
S'3HB'
p176
aF0.07920000000000016
aF-0.9509999999999994
aF-2.553199999999997
aaaa(lp177
(lp178
(lp179
S'N'
p180
aF-0.5122
aF-1.2869999999999984
aF-0.35819999999999935
aa(lp181
S'H'
p182
aF-0.5701999999999998
aF-1.614
aF0.5948000000000035
aa(lp183
S'CA'
p184
aF-0.45619999999999905
aF0.14799999999999686
aF-0.6152000000000044
aa(lp185
S'C'
p186
aF0.5047999999999995
aF0.8419999999999994
aF0.3407999999999987
aa(lp187
S'O'
p188
aF1.0337999999999994
aF1.911000000000002
aF0.037800000000001485
aa(lp189
S'CB'
p190
aF-1.8451999999999984
aF0.759000000000001
aF-0.5061999999999955
aa(lp191
S'HA'
p192
aF-0.08319999999999794
aF0.2960000000000001
aF-1.6292000000000002
aa(lp193
S'1HB'
p194
aF-1.7871999999999986
aF1.829999999999999
aF-0.7012000000000029
aa(lp195
S'2HB'
p196
aF-2.5061999999999998
aF0.293
aF-1.2372000000000043
aa(lp197
S'3HB'
p198
aF-2.238199999999999
aF0.5940000000000019
aF0.4947999999999951
aaaa(lp199
(lp200
(lp201
S'N'
p202
aF0.13239999999999555
aF-0.8759999999999962
aF-0.6324000000000126
aa(lp203
S'H'
p204
aF0.05740000000000691
aF-0.8720000000000055
aF-1.639399999999989
aa(lp205
S'CA'
p206
aF-0.882600000000005
aF-0.19000000000000342
aF0.15860000000001265
aa(lp207
S'C'
p208
aF-0.26459999999999584
aF0.9090000000000004
aF1.0136000000000025
aa(lp209
S'O'
p210
aF0.9573999999999984
aF1.0290000000000048
aF1.0995999999999868
aa(lp211
S'CB'
p212
aF-1.632600000000005
aF-1.1829999999999985
aF1.0336000000000127
aa(lp213
S'HA'
p214
aF-1.5876000000000032
aF0.2790000000000049
aF-0.5283999999999992
aa(lp215
S'1HB'
p216
aF-2.3876000000000004
aF-0.6549999999999926
aF1.6175999999999875
aa(lp217
S'2HB'
p218
aF-2.1176000000000044
aF-1.9289999999999936
aF0.40359999999998875
aa(lp219
S'3HB'
p220
aF-0.9335999999999928
aF-1.6759999999999935
aF1.7056000000000098
aaaa(lp221
(lp222
(lp223
S'N'
p224
aF0.09179999999999922
aF0.8932000000000004
aF0.9362000000000001
aa(lp225
S'H'
p226
aF0.8038000000000025
aF1.5922000000000003
aF1.0932
aa(lp227
S'CA'
p228
aF0.4457999999999984
aF-0.33379999999999993
aF0.2331999999999998
aa(lp229
S'C'
p230
aF-0.7402000000000015
aF-0.8798000000000001
aF-0.5517999999999994
aa(lp231
S'O'
p232
aF-0.6011999999999986
aF-1.2718000000000005
aF-1.7108000000000003
aa(lp233
S'CB'
p234
aF0.9547999999999988
aF-1.3787999999999998
aF1.2151999999999998
aa(lp235
S'HA'
p236
aF1.2388000000000048
aF-0.10079999999999938
aF-0.47779999999999956
aa(lp237
S'1HB'
p238
aF1.2148000000000039
aF-2.2898000000000005
aF0.6752
aa(lp239
S'2HB'
p240
aF1.8378000000000014
aF-0.9968000000000001
aF1.7281999999999997
aa(lp241
S'3HB'
p242
aF0.1788000000000025
aF-1.5997999999999999
aF1.9461999999999997
aaaa(lp243
(lp244
(lp245
S'N'
p246
aF-1.124199999999999
aF0.03019999999999927
aF0.613
aa(lp247
S'H'
p248
aF-1.8842000000000005
aF-0.46779999999999833
aF0.17299999999999993
aa(lp249
S'CA'
p250
aF0.22780000000000128
aF-0.5058000000000021
aF0.514
aa(lp251
S'C'
p252
aF1.1877999999999986
aF0.5232000000000013
aF-0.07100000000000004
aa(lp253
S'O'
p254
aF1.5927999999999998
aF0.4201999999999998
aF-1.2289999999999999
aa(lp255
S'CB'
p256
aF0.23479999999999918
aF-1.7738000000000027
aF-0.32700000000000007
aa(lp257
S'HA'
p258
aF0.5708000000000013
aF-0.7477999999999995
aF1.52
aa(lp259
S'1HB'
p260
aF1.2517999999999987
aF-2.161800000000001
aF-0.392
aa(lp261
S'2HB'
p262
aF-0.4102000000000004
aF-2.5208000000000026
aF0.1349999999999999
aa(lp263
S'3HB'
p264
aF-0.13120000000000048
aF-1.5478000000000036
aF-1.328
aaaa(lp265
(lp266
(lp267
S'N'
p268
aF-0.6369999999999989
aF0.6397999999999996
aF1.0331999999999966
aa(lp269
S'H'
p270
aF-1.6320000000000037
aF0.46480000000000243
aF1.0142000000000053
aa(lp271
S'CA'
p272
aF0.27100000000000235
aF-0.3671999999999983
aF0.49719999999999515
aa(lp273
S'C'
p274
aF0.8200000000000018
aF0.05279999999999636
aF-0.8607999999999947
aa(lp275
S'O'
p276
aF1.1779999999999986
aF-0.7902000000000001
aF-1.6838000000000022
aa(lp277
S'CB'
p278
aF-0.4329999999999983
aF-1.7122000000000042
aF0.39019999999999583
aa(lp279
S'HA'
p280
aF1.1130000000000009
aF-0.46320000000000194
aF1.1821999999999975
aa(lp281
S'1HB'
p282
aF0.2579999999999971
aF-2.4542000000000015
aF-0.01080000000000041
aa(lp283
S'2HB'
p284
aF-0.7679999999999991
aF-2.027200000000002
aF1.3792000000000002
aa(lp285
S'3HB'
p286
aF-1.2920000000000003
aF-1.621200000000003
aF-0.2717999999999961
aaaa(lp287
(lp288
(lp289
S'N'
p290
aF-0.2159999999999968
aF0.24000000000000343
aF1.0850000000000015
aa(lp291
S'H'
p292
aF0.15099999999999342
aF1.0779999999999972
aF1.5129999999999988
aa(lp293
S'CA'
p294
aF0.6540000000000077
aF-0.5629999999999938
aF0.23399999999999893
aa(lp295
S'C'
p296
aF0.2939999999999941
aF-0.39599999999999225
aF-1.236
aa(lp297
S'O'
p298
aF-0.8829999999999985
aF-0.35900000000001453
aF-1.5959999999999994
aa(lp299
S'CB'
p300
aF0.5789999999999906
aF-2.030000000000007
aF0.634000000000001
aa(lp301
S'HA'
p302
aF1.6770000000000038
aF-0.21199999999999475
aF0.3690000000000005
aa(lp303
S'1HB'
p304
aF1.2339999999999918
aF-2.615999999999991
aF-0.011000000000000298
aa(lp305
S'2HB'
p306
aF0.8959999999999979
aF-2.140999999999997
aF1.671
aa(lp307
S'3HB'
p308
aF-0.4449999999999818
aF-2.3830000000000156
aF0.5279999999999994
aaaa(lp309
(lp310
(lp311
S'N'
p312
aF-0.18739999999999948
aF1.0154
aF0.9238
aa(lp313
S'H'
p314
aF-1.1423999999999979
aF1.3194
aF0.7988
aa(lp315
S'CA'
p316
aF0.16959999999999983
aF-0.3606
aF0.5987999999999998
aa(lp317
S'C'
p318
aF0.19060000000000063
aF-0.5835999999999999
aF-0.9071999999999996
aa(lp319
S'O'
p320
aF0.9695999999999969
aF-1.3906
aF-1.4142000000000001
aa(lp321
S'CB'
p322
aF-0.7984000000000038
aF-1.3286
aF1.2637999999999998
aa(lp323
S'HA'
p324
aF1.1735999999999975
aF-0.5486
aF0.9787999999999997
aa(lp325
S'1HB'
p326
aF-0.5184000000000026
aF-2.3516
aF1.0118
aa(lp327
S'2HB'
p328
aF-0.7594000000000023
aF-1.1976
aF2.3448
aa(lp329
S'3HB'
p330
aF-1.8093999999999995
aF-1.1316
aF0.9108
aaaa(lp331
(lp332
(lp333
S'N'
p334
aF-0.2461999999999996
aF0.8699999999999996
aF-0.8759999999999991
aa(lp335
S'H'
p336
aF0.7587999999999994
aF0.8169999999999987
aF-0.7919999999999959
aa(lp337
S'CA'
p338
aF-1.0782000000000003
aF0.22900000000000134
aF0.1349999999999966
aa(lp339
S'C'
p340
aF-0.27719999999999845
aF-0.779999999999999
aF0.9490000000000037
aa(lp341
S'O'
p342
aF0.842799999999999
aF-1.1360000000000006
aF0.5839999999999946
aa(lp343
S'CB'
p344
aF-2.2751999999999994
aF-0.4479999999999983
aF-0.5149999999999949
aa(lp345
S'HA'
p346
aF-1.4362000000000008
aF0.9999999999999986
aF0.8180000000000035
aa(lp347
S'1HB'
p348
aF-2.8872000000000013
aF-0.9229999999999997
aF0.252000000000001
aa(lp349
S'2HB'
p350
aF-2.8701999999999983
aF0.2960000000000015
aF-1.044999999999996
aa(lp351
S'3HB'
p352
aF-1.9281999999999981
aF-1.2030000000000007
aF-1.2200000000000073
aaaa(lp353
(lp354
(lp355
S'N'
p356
aF0.29939999999999856
aF1.1422000000000012
aF-0.34539999999999793
aa(lp357
S'H'
p358
aF0.9964000000000013
aF0.6661999999999983
aF-0.9014000000000024
aa(lp359
S'CA'
p360
aF-0.1446000000000005
aF0.5391999999999995
aF0.9055999999999997
aa(lp361
S'C'
p362
aF-0.7245999999999988
aF-0.8497999999999999
aF0.6726000000000028
aa(lp363
S'O'
p364
aF-0.42660000000000053
aF-1.4977999999999994
aF-0.33140000000000214
aa(lp365
S'CB'
p366
aF-1.1686000000000014
aF1.4322000000000004
aF1.5896000000000043
aa(lp367
S'HA'
p368
aF0.723399999999998
aF0.43320000000000364
aF1.5576000000000008
aa(lp369
S'1HB'
p370
aF-1.4906000000000006
aF0.9682000000000015
aF2.522600000000004
aa(lp371
S'2HB'
p372
aF-0.720600000000001
aF2.4032000000000004
aF1.8025999999999982
aa(lp373
S'3HB'
p374
aF-2.028600000000001
aF1.5651999999999995
aF0.9356000000000009
aaaa(lp375
(lp376
(lp377
S'N'
p378
aF-0.2461999999999996
aF0.8699999999999996
aF-0.8759999999999991
aa(lp379
S'H'
p380
aF0.7587999999999994
aF0.8169999999999987
aF-0.7919999999999959
aa(lp381
S'CA'
p382
aF-1.0782000000000003
aF0.22900000000000134
aF0.1349999999999966
aa(lp383
S'C'
p384
aF-0.27719999999999845
aF-0.779999999999999
aF0.9490000000000037
aa(lp385
S'O'
p386
aF0.842799999999999
aF-1.1360000000000006
aF0.5839999999999946
aa(lp387
S'CB'
p388
aF-2.2751999999999994
aF-0.4479999999999983
aF-0.5149999999999949
aa(lp389
S'HA'
p390
aF-1.4362000000000008
aF0.9999999999999986
aF0.8180000000000035
aa(lp391
S'1HB'
p392
aF-2.8872000000000013
aF-0.9229999999999997
aF0.252000000000001
aa(lp393
S'2HB'
p394
aF-2.8701999999999983
aF0.2960000000000015
aF-1.044999999999996
aa(lp395
S'3HB'
p396
aF-1.9281999999999981
aF-1.2030000000000007
aF-1.2200000000000073
aaaa(lp397
(lp398
(lp399
S'N'
p400
aF-0.1678000000000011
aF0.9108000000000118
aF0.7863999999999975
aa(lp401
S'H'
p402
aF-0.34980000000000333
aF1.5077999999999918
aF-0.0075999999999992966
aa(lp403
S'CA'
p404
aF0.7981999999999999
aF-0.17320000000000563
aF0.653400000000002
aa(lp405
S'C'
p406
aF0.4372000000000028
aF-1.0941999999999978
aF-0.5045999999999993
aa(lp407
S'O'
p408
aF-0.7177999999999983
aF-1.1512
aF-0.9276000000000011
aa(lp409
S'CB'
p410
aF0.889200000000001
aF-0.9652000000000072
aF1.950399999999999
aa(lp411
S'HA'
p412
aF1.7732000000000014
aF0.26580000000000154
aF0.43939999999999635
aa(lp413
S'1HB'
p414
aF1.6142000000000025
aF-1.7701999999999998
aF1.8343999999999994
aa(lp415
S'2HB'
p416
aF1.2051999999999965
aF-0.3051999999999964
aF2.758399999999999
aa(lp417
S'3HB'
p418
aF-0.08679999999999802
aF-1.3861999999999994
aF2.187400000000001
aaaa(lp419
(lp420
(lp421
S'N'
p422
aF-0.7426000000000009
aF-0.9188000000000003
aF0.7284000000000048
aa(lp423
S'H'
p424
aF-0.9535999999999994
aF-1.532800000000001
aF-0.04460000000000544
aa(lp425
S'CA'
p426
aF0.45040000000000047
aF-0.08379999999999939
aF0.6673999999999978
aa(lp427
S'C'
p428
aF0.22740000000000152
aF1.1312000000000004
aF-0.22459999999999802
aa(lp429
S'O'
p430
aF1.0183999999999984
aF1.4042000000000001
aF-1.1265999999999992
aa(lp431
S'CB'
p432
aF1.6394000000000006
aF-0.8937999999999982
aF0.16939999999999322
aa(lp433
S'HA'
p434
aF0.6654000000000003
aF0.27519999999999883
aF1.673399999999998
aa(lp435
S'1HB'
p436
aF2.5223999999999998
aF-0.2568000000000012
aF0.12940000000000118
aa(lp437
S'2HB'
p438
aF1.8224000000000005
aF-1.725799999999999
aF0.8493999999999999
aa(lp439
S'3HB'
p440
aF1.4244000000000008
aF-1.279800000000001
aF-0.8255999999999972
aaaa(lp441
(lp442
(lp443
S'N'
p444
aF0.3342000000000013
aF-1.0175999999999987
aF0.8777999999999964
aa(lp445
S'H'
p446
aF0.15719999999999462
aF-1.5515999999999976
aF0.03980000000000242
aa(lp447
S'CA'
p448
aF0.12219999999999803
aF0.4244000000000014
aF0.8597999999999957
aa(lp449
S'C'
p450
aF0.2032000000000011
aF0.9753999999999963
aF-0.5581999999999965
aa(lp451
S'O'
p452
aF-0.816799999999995
aF1.1693999999999989
aF-1.2191999999999978
aa(lp453
S'CB'
p454
aF1.1352000000000033
aF1.121399999999997
aF1.7557999999999965
aa(lp455
S'HA'
p456
aF-0.8808000000000021
aF0.6243999999999972
aF1.2377999999999958
aa(lp457
S'1HB'
p458
aF0.9632000000000062
aF2.1973999999999974
aF1.7317999999999956
aa(lp459
S'2HB'
p460
aF1.0252000000000039
aF0.7594000000000023
aF2.7787999999999924
aa(lp461
S'3HB'
p462
aF2.1422000000000083
aF0.9064000000000008
aF1.4017999999999973
aaaa(lp463
(lp464
(lp465
S'N'
p466
aF-0.5112000000000002
aF1.1918000000000006
aF-0.3379999999999995
aa(lp467
S'H'
p468
aF-1.0411999999999995
aF1.3567999999999998
aF-1.1820000000000008
aa(lp469
S'CA'
p470
aF0.47879999999999995
aF0.12180000000000035
aF-0.3179999999999964
aa(lp471
S'C'
p472
aF0.10980000000000022
aF-0.9512
aF0.6969999999999972
aa(lp473
S'O'
p474
aF0.9637999999999994
aF-1.7192000000000007
aF1.1409999999999996
aa(lp475
S'CB'
p476
aF1.8598000000000003
aF0.6848000000000027
aF-0.01499999999999915
aa(lp477
S'HA'
p478
aF0.4957999999999994
aF-0.3421999999999983
aF-1.3040000000000007
aa(lp479
S'1HB'
p480
aF2.5888000000000013
aF-0.1261999999999972
aF-0.003999999999996362
aa(lp481
S'2HB'
p482
aF2.1348000000000007
aF1.4087999999999994
aF-0.782000000000002
aa(lp483
S'3HB'
p484
aF1.8477999999999999
aF1.1738
aF0.958
aaaa(lp485
(lp486
(lp487
S'N'
p488
aF0.796
aF0.9316000000000002
aF-0.3708
aa(lp489
S'H'
p490
aF-0.060999999999999194
aF1.398599999999999
aF-0.10979999999999998
aa(lp491
S'CA'
p492
aF0.9809999999999988
aF-0.46839999999999826
aF-0.006800000000000006
aa(lp493
S'C'
p494
aF-0.35000000000000064
aF-1.2074000000000027
aF0.03320000000000004
aa(lp495
S'O'
p496
aF-1.365999999999999
aF-0.6543999999999983
aF0.4542
aa(lp497
S'CB'
p498
aF1.6879999999999995
aF-0.5774000000000001
aF1.3362
aa(lp499
S'HA'
p500
aF1.6009999999999998
aF-0.9373999999999996
aF-0.7708
aa(lp501
S'1HB'
p502
aF1.8189999999999997
aF-1.628400000000002
aF1.5942
aa(lp503
S'2HB'
p504
aF2.663000000000001
aF-0.09540000000000073
aF1.2752000000000001
aa(lp505
S'3HB'
p506
aF1.0889999999999993
aF-0.08839999999999573
aF2.1032
aaaa(lp507
(lp508
(lp509
S'N'
p510
aF0.2656000000000006
aF-0.9631999999999998
aF0.25419999999999454
aa(lp511
S'H'
p512
aF0.4046000000000106
aF-1.7222000000000002
aF0.9061999999999955
aa(lp513
S'CA'
p514
aF-0.1774000000000115
aF0.33180000000000015
aF0.756200000000004
aa(lp515
S'C'
p516
aF-0.42640000000000666
aF1.3097999999999999
aF-0.38480000000000125
aa(lp517
S'O'
p518
aF-0.06639999999999306
aF1.0437999999999998
aF-1.5317999999999927
aa(lp519
S'CB'
p520
aF0.8455999999999847
aF0.9018000000000004
aF1.7272000000000076
aa(lp521
S'HA'
p522
aF-1.1214
aF0.18580000000000024
aF1.2822000000000002
aa(lp523
S'1HB'
p524
aF0.4996000000000095
aF1.8688
aF2.094199999999998
aa(lp525
S'2HB'
p526
aF0.9696000000000083
aF0.2188000000000006
aF2.568200000000002
aa(lp527
S'3HB'
p528
aF1.7995999999999923
aF1.0277999999999998
aF1.2182000000000073
aaaa(lp529
(lp530
(lp531
S'N'
p532
aF0.6436000000000064
aF0.09259999999999877
aF-0.846199999999999
aa(lp533
S'H'
p534
aF0.9185999999999979
aF0.6256
aF-1.6592000000000013
aa(lp535
S'CA'
p536
aF-0.0023999999999944066
aF0.7776000000000011
aF0.26680000000000065
aa(lp537
S'C'
p538
aF-0.5254000000000048
aF-0.21639999999999873
aF1.2958000000000005
aa(lp539
S'O'
p540
aF-1.034400000000005
aF-1.2794000000000012
aF0.942799999999999
aa(lp541
S'CB'
p542
aF-1.1333999999999946
aF1.6606000000000036
aF-0.23919999999999958
aa(lp543
S'HA'
p544
aF0.7425999999999959
aF1.4046000000000034
aF0.756799999999999
aa(lp545
S'1HB'
p546
aF-1.6063999999999936
aF2.1646000000000014
aF0.6038000000000003
aa(lp547
S'2HB'
p548
aF-0.7343999999999937
aF2.4035999999999986
aF-0.9292000000000009
aa(lp549
S'3HB'
p550
aF-1.8713999999999942
aF1.0465999999999993
aF-0.753199999999999
aaaa(lp551
(lp552
(lp553
S'N'
p554
aF-0.6008000000000011
aF0.004999999999999406
aF0.9738000000000001
aa(lp555
S'H'
p556
aF-1.3087999999999993
aF0.7129999999999995
aF1.1078
aa(lp557
S'CA'
p558
aF-0.5037999999999998
aF-0.6669999999999995
aF-0.3161999999999999
aa(lp559
S'C'
p560
aF0.9032000000000002
aF-0.5609999999999996
aF-0.8882
aa(lp561
S'O'
p562
aF1.5101999999999998
aF0.5100000000000001
aF-0.8772000000000001
aa(lp563
S'CB'
p564
aF-1.5167999999999977
aF-0.08800000000000055
aF-1.2932000000000001
aa(lp565
S'HA'
p566
aF-0.7237999999999987
aF-1.7239999999999998
aF-0.16420000000000026
aa(lp567
S'1HB'
p568
aF-1.432799999999998
aF-0.6010000000000005
aF-2.2512
aa(lp569
S'2HB'
p570
aF-2.523799999999999
aF-0.22399999999999978
aF-0.8962
aa(lp571
S'3HB'
p572
aF-1.3217999999999974
aF0.9740000000000005
aF-1.4312000000000002
aaaa(lp573
(lp574
(lp575
S'N'
p576
aF-0.44400000000000034
aF0.6563999999999999
aF0.8125999999999994
aa(lp577
S'H'
p578
aF-1.047
aF1.437399999999999
aF1.0305999999999993
aa(lp579
S'CA'
p580
aF-0.5490000000000005
aF0.022399999999999573
aF-0.4963999999999998
aa(lp581
S'C'
p582
aF0.7899999999999999
aF-0.5525999999999998
aF-0.9393999999999995
aa(lp583
S'O'
p584
aF1.2500000000000007
aF-1.5635999999999988
aF-0.4073999999999994
aa(lp585
S'CB'
p586
aF-1.0650000000000006
aF1.0153999999999983
aF-1.5263999999999993
aa(lp587
S'HA'
p588
aF-1.2559999999999996
aF-0.803600000000001
aF-0.4163999999999997
aa(lp589
S'1HB'
p590
aF-1.1390000000000005
aF0.5264000000000009
aF-2.498399999999999
aa(lp591
S'2HB'
p592
aF-2.05
aF1.3733999999999988
aF-1.2253999999999992
aa(lp593
S'3HB'
p594
aF-0.37900000000000084
aF1.8574000000000006
aF-1.5954000000000002
aaaa(lp595
(lp596
(lp597
S'N'
p598
aF0.4829999999999997
aF-0.5103999999999985
aF-1.0397999999999983
aa(lp599
S'H'
p600
aF0.546
aF0.12859999999999733
aF-1.8188000000000017
aa(lp601
S'CA'
p602
aF0.7470000000000001
aF-0.01639999999999873
aF0.3061999999999984
aa(lp603
S'C'
p604
aF-0.5149999999999999
aF0.5555999999999969
aF0.9401999999999988
aa(lp605
S'O'
p606
aF-1.261
aF-0.15739999999999693
aF1.6122000000000027
aa(lp607
S'CB'
p608
aF1.8479999999999996
aF1.0335999999999985
aF0.28020000000000217
aa(lp609
S'HA'
p610
aF1.0760000000000003
aF-0.8573999999999998
aF0.9172000000000027
aa(lp611
S'1HB'
p612
aF2.033
aF1.3926000000000003
aF1.2922000000000025
aa(lp613
S'2HB'
p614
aF2.7609999999999997
aF0.5936000000000007
aF-0.1217999999999989
aa(lp615
S'3HB'
p616
aF1.5399999999999998
aF1.866600000000004
aF-0.3498000000000004
aaaa(lp617
(lp618
(lp619
S'N'
p620
aF-0.4052000000000001
aF0.8738000000000012
aF0.41720000000000257
aa(lp621
S'H'
p622
aF-0.5382000000000001
aF1.8747999999999991
aF0.4232000000000028
aa(lp623
S'CA'
p624
aF0.6668
aF0.3047999999999986
aF-0.39080000000000437
aa(lp625
S'C'
p626
aF0.6618
aF-1.2171999999999996
aF-0.31880000000000164
aa(lp627
S'O'
p628
aF-0.38519999999999965
aF-1.8361999999999994
aF-0.1307999999999993
aa(lp629
S'CB'
p630
aF2.0147999999999997
aF0.8508000000000016
aF0.057200000000002825
aa(lp631
S'HA'
p632
aF0.4968
aF0.5908
aF-1.4288000000000012
aa(lp633
S'1HB'
p634
aF2.8048000000000006
aF0.4168000000000005
aF-0.5557999999999964
aa(lp635
S'2HB'
p636
aF2.0227999999999997
aF1.935799999999999
aF-0.054800000000006156
aa(lp637
S'3HB'
p638
aF2.1828
aF0.5938000000000001
aF1.1012
aaaa(lp639
(lp640
(lp641
S'N'
p642
aF0.27839999999999776
aF-1.0803999999999987
aF0.5227999999999982
aa(lp643
S'H'
p644
aF0.4894000000000034
aF-0.776400000000004
aF1.461799999999998
aa(lp645
S'CA'
p646
aF-0.8085999999999984
aF-0.43640000000000057
aF-0.20519999999999644
aa(lp647
S'C'
p648
aF-0.4665999999999997
aF1.0106000000000024
aF-0.5382000000000018
aa(lp649
S'O'
p650
aF0.507399999999997
aF1.2826000000000009
aF-1.2411999999999979
aa(lp651
S'CB'
p652
aF-2.0985999999999976
aF-0.5034000000000007
aF0.5987999999999987
aa(lp653
S'HA'
p654
aF-0.9506000000000014
aF-0.9703999999999995
aF-1.1452000000000013
aa(lp655
S'1HB'
p656
aF-2.8995999999999995
aF-0.017400000000003593
aF0.04180000000000349
aa(lp657
S'2HB'
p658
aF-2.361600000000003
aF-1.545400000000002
aF0.7787999999999984
aa(lp659
S'3HB'
p660
aF-1.9596000000000018
aF0.00559999999999965
aF1.5518000000000014
aaaa(lp661
(lp662
(lp663
S'N'
p664
aF1.2343999999999995
aF-0.270000000000001
aF0.37660000000000055
aa(lp665
S'H'
p666
aF1.754399999999999
aF-0.2109999999999999
aF1.2406000000000013
aa(lp667
S'CA'
p668
aF-0.21960000000000135
aF-0.17499999999999855
aF0.41559999999999847
aa(lp669
S'C'
p670
aF-0.781599999999999
aF0.22900000000000137
aF-0.9414000000000009
aa(lp671
S'O'
p672
aF-1.9875999999999983
aF0.42699999999999816
aF-1.0913999999999995
aa(lp673
S'CB'
p674
aF-0.6576000000000002
aF0.8149999999999998
aF1.484600000000001
aa(lp675
S'HA'
p676
aF-0.617600000000001
aF-1.1590000000000003
aF0.6616000000000006
aa(lp677
S'1HB'
p678
aF-1.7465999999999986
aF0.8749999999999986
aF1.5005999999999993
aa(lp679
S'2HB'
p680
aF-0.2976000000000008
aF0.4820000000000014
aF2.4586000000000015
aa(lp681
S'3HB'
p682
aF-0.2435999999999987
aF1.7969999999999993
aF1.2615999999999985
aaaa(lp683
(lp684
(lp685
S'N'
p686
aF0.5214000000000004
aF0.5633999999999993
aF0.896
aa(lp687
S'H'
p688
aF1.2944
aF-0.058600000000000596
aF1.0850000000000002
aa(lp689
S'CA'
p690
aF-0.7866000000000003
aF-0.002599999999999658
aF0.5910000000000003
aa(lp691
S'C'
p692
aF-0.9906
aF-0.14059999999999956
aF-0.9119999999999998
aa(lp693
S'O'
p694
aF-0.03859999999999987
aF-0.3615999999999996
aF-1.6600000000000008
aa(lp695
S'CB'
p696
aF-1.8885999999999998
aF0.8533999999999994
aF1.199000000000001
aa(lp697
S'HA'
p698
aF-0.8336
aF-1.0006000000000008
aF1.0280000000000016
aa(lp699
S'1HB'
p700
aF-2.8596
aF0.4174000000000003
aF0.9630000000000002
aa(lp701
S'2HB'
p702
aF-1.7626000000000004
aF0.8943999999999998
aF2.2810000000000015
aa(lp703
S'3HB'
p704
aF-1.8346000000000005
aF1.8603999999999998
aF0.7890000000000007
aaaa(lp705
(lp706
(lp707
S'N'
p708
aF-0.6307999999999991
aF0.948799999999997
aF-0.9051999999999992
aa(lp709
S'H'
p710
aF-1.3458000000000028
aF1.077800000000002
aF-0.20419999999999874
aa(lp711
S'CA'
p712
aF0.34819999999999995
aF-0.11819999999999603
aF-0.7341999999999999
aa(lp713
S'C'
p714
aF0.3252000000000038
aF-0.6631999999999978
aF0.6877999999999972
aa(lp715
S'O'
p716
aF1.3031999999999981
aF-1.2452000000000054
aF1.1558000000000006
aa(lp717
S'CB'
p718
aF1.7422000000000053
aF0.38079999999999914
aF-1.0862000000000038
aa(lp719
S'HA'
p720
aF0.08420000000000413
aF-0.9322000000000032
aF-1.4081999999999995
aa(lp721
S'1HB'
p722
aF2.462200000000004
aF-0.426200000000003
aF-0.953200000000001
aa(lp723
S'2HB'
p724
aF1.7581999999999964
aF0.7137999999999975
aF-2.1242000000000005
aa(lp725
S'3HB'
p726
aF2.006200000000001
aF1.2128000000000072
aF-0.43520000000000036
aaaa(lp727
(lp728
(lp729
S'N'
p730
aF-0.1987999999999998
aF0.8146000000000008
aF1.0628000000000015
aa(lp731
S'H'
p732
aF0.5181999999999999
aF0.6226000000000006
aF1.746799999999999
aa(lp733
S'CA'
p734
aF0.10319999999999982
aF0.634600000000001
aF-0.3521999999999978
aa(lp735
S'C'
p736
aF-0.5387999999999996
aF-0.6344000000000009
aF-0.8962000000000019
aa(lp737
S'O'
p738
aF0.11619999999999972
aF-1.4374000000000016
aF-1.5612000000000008
aa(lp739
S'CB'
p740
aF1.6081999999999996
aF0.602600000000001
aF-0.5722000000000038
aa(lp741
S'HA'
p742
aF-0.3147999999999994
aF1.4806000000000012
aF-0.8982000000000043
aa(lp743
S'1HB'
p744
aF1.8181999999999996
aF0.46759999999999946
aF-1.6342000000000012
aa(lp745
S'2HB'
p746
aF2.0462000000000002
aF1.5406
aF-0.2322000000000003
aa(lp747
S'3HB'
p748
aF2.0402
aF-0.22440000000000068
aF-0.010199999999999008
aaaa(lp749
(lp750
(lp751
S'N'
p752
aF-0.2683999999999969
aF0.7791999999999975
aF-1.0047999999999946
aa(lp753
S'H'
p754
aF-0.6114000000000004
aF1.7292
aF-0.9718000000000073
aa(lp755
S'CA'
p756
aF0.5466000000000009
aF0.2802000000000022
aF0.09620000000000459
aa(lp757
S'C'
p758
aF-0.1414000000000016
aF-0.877799999999999
aF0.8091999999999986
aa(lp759
S'O'
p760
aF0.4745999999999981
aF-1.9108000000000005
aF1.0711999999999988
aa(lp761
S'CB'
p762
aF0.8515999999999935
aF1.4001999999999923
aF1.0801999999999992
aa(lp763
S'HA'
p764
aF1.4835999999999985
aF-0.09179999999999772
aF-0.31779999999999686
aa(lp765
S'1HB'
p766
aF1.4606000000000023
aF1.0111999999999965
aF1.8962000000000017
aa(lp767
S'2HB'
p768
aF1.3945999999999998
aF2.195199999999994
aF0.5692000000000037
aa(lp769
S'3HB'
p770
aF-0.07940000000971519
aF1.797199999999998
aF1.4802000000000048
aaaa(lp771
(lp772
(lp773
S'N'
p774
aF-1.1307999999999965
aF-0.07160000000000083
aF0.1014000000000004
aa(lp775
S'H'
p776
aF-1.6318000000000012
aF0.7664000000000073
aF0.36039999999999994
aa(lp777
S'CA'
p778
aF-0.0798000000000016
aF0.011399999999997567
aF-0.9056000000000001
aa(lp779
S'C'
p780
aF1.300200000000001
aF0.006400000000002116
aF-0.2626000000000003
aa(lp781
S'O'
p782
aF1.5421999999999982
aF-0.7126000000000061
aF0.7064
aa(lp783
S'CB'
p784
aF-0.26179999999999665
aF1.2583999999999975
aF-1.7586000000000008
aa(lp785
S'HA'
p786
aF-0.15379999999999966
aF-0.867599999999993
aF-1.5455999999999999
aa(lp787
S'1HB'
p788
aF0.5301999999999978
aF1.3063999999999993
aF-2.5066
aa(lp789
S'2HB'
p790
aF-1.2298000000000002
aF1.2204000000000008
aF-2.258600000000001
aa(lp791
S'3HB'
p792
aF-0.21579999999999727
aF2.1423999999999976
aF-1.1245999999999996
aaaa(lp793
(lp794
(lp795
S'N'
p796
aF0.6669999999999995
aF-0.03560000000000803
aF-0.9112000000000025
aa(lp797
S'H'
p798
aF0.9800000000000001
aF0.8864000000000033
aF-1.1811999999999983
aa(lp799
S'CA'
p800
aF0.7030000000000008
aF-0.41459999999999864
aF0.4957999999999941
aa(lp801
S'C'
p802
aF-0.6999999999999996
aF-0.4855999999999966
aF1.0838000000000023
aa(lp803
S'O'
p804
aF-1.6500000000000008
aF0.04939999999999993
aF0.5128000000000041
aa(lp805
S'CB'
p806
aF1.5590000000000006
aF0.5633999999999958
aF1.2868000000000053
aa(lp807
S'HA'
p808
aF1.1460000000000004
aF-1.4085999999999985
aF0.5668000000000062
aa(lp809
S'1HB'
p810
aF1.5769999999999995
aF0.2674000000000035
aF2.334800000000007
aa(lp811
S'2HB'
p812
aF2.5750000000000006
aF0.5603999999999957
aF0.8917999999999948
aa(lp813
S'3HB'
p814
aF1.1400000000000001
aF1.565399999999991
aF1.199800000000002
aaaa(lp815
(lp816
(lp817
S'N'
p818
aF-0.32420000000000027
aF-1.2232000000000087
aF0.11440000000000125
aa(lp819
S'H'
p820
aF-0.1322000000000001
aF-2.1272000000000046
aF-0.2916000000000011
aa(lp821
S'CA'
p822
aF0.32280000000000086
aF-0.042199999999996955
aF-0.445600000000001
aa(lp823
S'C'
p824
aF0.2347999999999999
aF1.139800000000005
aF0.512400000000001
aa(lp825
S'O'
p826
aF-0.1012000000000004
aF2.252800000000005
aF0.11039999999999991
aa(lp827
S'CB'
p828
aF-0.2991999999999999
aF0.3178000000000025
aF-1.7865999999999986
aa(lp829
S'HA'
p830
aF1.3778000000000006
aF-0.27320000000000566
aF-0.5955999999999996
aa(lp831
S'1HB'
p832
aF0.19479999999999986
aF1.2007999999999979
aF-2.1915999999999998
aa(lp833
S'2HB'
p834
aF-0.17720000000000002
aF-0.515199999999996
aF-2.4796
aa(lp835
S'3HB'
p836
aF-1.3592000000000004
aF0.524799999999996
aF-1.6525999999999983
aaaa(lp837
(lp838
(lp839
S'N'
p840
aF0.10720000000000035
aF0.29240000000000066
aF-1.2136000000000018
aa(lp841
S'H'
p842
aF0.9592000000000006
aF-0.23859999999999992
aF-1.3256000000000001
aa(lp843
S'CA'
p844
aF-0.1518000000000001
aF0.9613999999999994
aF0.055400000000000386
aa(lp845
S'C'
p846
aF-0.7578000000000017
aF0.00140000000000029
aF1.0704000000000007
aa(lp847
S'O'
p848
aF-0.1567999999999991
aF-1.0166000000000004
aF1.4134000000000007
aa(lp849
S'CB'
p850
aF-1.0678000000000005
aF2.1584000000000003
aF-0.15359999999999926
aa(lp851
S'HA'
p852
aF0.8011999999999994
aF1.311399999999999
aF0.4543999999999978
aa(lp853
S'1HB'
p854
aF-1.2518000000000016
aF2.6473999999999993
aF0.8024000000000003
aa(lp855
S'2HB'
p856
aF-0.5948000000000014
aF2.8634000000000004
aF-0.836599999999999
aa(lp857
S'3HB'
p858
aF-2.012800000000001
aF1.8224
aF-0.576600000000001
aaaa(lp859
(lp860
(lp861
S'N'
p862
aF-1.3689999999999998
aF-0.3332000000000007
aF-0.22460000000000022
aa(lp863
S'H'
p864
aF-1.142000000000003
aF-0.988200000000002
aF-0.9595999999999997
aa(lp865
S'CA'
p866
aF-0.39099999999999824
aF0.6817999999999997
aF0.14940000000000034
aa(lp867
S'C'
p868
aF0.9100000000000037
aF0.04479999999999945
aF0.6213999999999998
aa(lp869
S'O'
p870
aF1.9919999999999973
aF0.5948000000000035
aF0.41339999999999966
aa(lp871
S'CB'
p872
aF-0.9579999999999984
aF1.5907999999999987
aF1.2294000000000005
aa(lp873
S'HA'
p874
aF-0.16899999999999693
aF1.2797999999999987
aF-0.7346
aa(lp875
S'1HB'
p876
aF-0.21600000000000108
aF2.3428000000000013
aF1.4984000000000006
aa(lp877
S'2HB'
p878
aF-1.8560000000000016
aF2.0828000000000033
aF0.8574000000000005
aa(lp879
S'3HB'
p880
aF-1.2079999999999984
aF0.9987999999999999
aF2.1084
aaaa(lp881
(lp882
(lp883
S'N'
p884
aF-1.3484
aF0.15659999999999918
aF-0.08260000000000212
aa(lp885
S'H'
p886
aF-1.7814
aF0.27860000000000085
aF-0.9865999999999986
aa(lp887
S'CA'
p888
aF-0.1003999999999998
aF-0.5923999999999996
aF0.012399999999996749
aa(lp889
S'C'
p890
aF1.0486
aF0.30659999999999954
aF0.4514000000000039
aa(lp891
S'O'
p892
aF2.1816
aF-0.14939999999999998
aF0.6054000000000002
aa(lp893
S'CB'
p894
aF0.22360000000000005
aF-1.2523999999999997
aF-1.319599999999997
aa(lp895
S'HA'
p896
aF-0.22639999999999968
aF-1.3664000000000005
aF0.7694000000000016
aa(lp897
S'1HB'
p898
aF1.1576
aF-1.8073999999999995
aF-1.232600000000008
aa(lp899
S'2HB'
p900
aF-0.5803999999999997
aF-1.9364000000000008
aF-1.5916000000000026
aa(lp901
S'3HB'
p902
aF0.32560000000000044
aF-0.48939999999999984
aF-2.0886000000000022
aaaa(lp903
(lp904
(lp905
S'N'
p906
aF-1.1324000000000012
aF-0.8365999999999992
aF0.3469999999999985
aa(lp907
S'H'
p908
aF-0.5074000000000012
aF-1.2896000000000005
aF0.9989999999999994
aa(lp909
S'CA'
p910
aF-0.6724000000000003
aF0.34240000000000104
aF-0.3760000000000005
aa(lp911
S'C'
p912
aF0.8456000000000004
aF0.36039999999999817
aF-0.49200000000000016
aa(lp913
S'O'
p914
aF1.4666000000000026
aF1.4234000000000004
aF-0.47799999999999726
aa(lp915
S'CB'
p916
aF-1.1654000000000024
aF1.6094000000000004
aF0.307999999999997
aa(lp917
S'HA'
p918
aF-1.0843999999999994
aF0.30339999999999956
aF-1.385000000000001
aa(lp919
S'1HB'
p920
aF-0.8143999999999962
aF2.4814000000000003
aF-0.24300000000000493
aa(lp921
S'2HB'
p922
aF-2.255399999999999
aF1.6094000000000004
aF0.33099999999999313
aa(lp923
S'3HB'
p924
aF-0.7814000000000021
aF1.6453999999999982
aF1.3259999999999976
aaaa(lp925
(lp926
(lp927
S'N'
p928
aF-0.6067999999999983
aF1.083800000000005
aF-0.5792000000000002
aa(lp929
S'H'
p930
aF-1.2538000000000005
aF0.9897999999999969
aF0.19079999999999586
aa(lp931
S'CA'
p932
aF0.6862000000000009
aF0.4127999999999987
aF-0.5052000000000021
aa(lp933
S'C'
p934
aF0.5241999999999983
aF-1.0561999999999956
aF-0.13620000000000232
aa(lp935
S'O'
p936
aF0.6501999999999996
aF-1.430200000000005
aF1.0298000000000087
aa(lp937
S'CB'
p938
aF1.5902000000000007
aF1.1138000000000061
aF0.497799999999998
aa(lp939
S'HA'
p940
aF1.1482000000000006
aF0.46080000000000054
aF-1.491199999999992
aa(lp941
S'1HB'
p942
aF2.5511999999999992
aF0.6018000000000059
aF0.5408000000000044
aa(lp943
S'2HB'
p944
aF1.7442000000000006
aF2.147799999999998
aF0.18880000000000052
aa(lp945
S'3HB'
p946
aF1.1252000000000009
aF1.0958000000000054
aF1.481800000000007
aaaa(lp947
(lp948
(lp949
S'N'
p950
aF-0.1693999999999974
aF0.025600000000001465
aF1.1292000000000002
aa(lp951
S'H'
p952
aF0.2435999999999993
aF-0.5344000000000009
aF1.8611999999999995
aa(lp953
S'CA'
p954
aF0.6666000000000011
aF0.48459999999999753
aF0.0272000000000034
aa(lp955
S'C'
p956
aF-0.11540000000000247
aF0.5226000000000013
aF-1.278800000000001
aa(lp957
S'O'
p958
aF-0.6254000000000005
aF-0.49839999999999945
aF-1.738800000000002
aa(lp959
S'CB'
p960
aF1.8916000000000026
aF-0.40840000000000315
aF-0.11579999999999728
aa(lp961
S'HA'
p962
aF0.9945999999999969
aF1.499599999999998
aF0.25120000000000003
aa(lp963
S'1HB'
p964
aF2.5056
aF-0.05339999999999916
aF-0.9428000000000025
aa(lp965
S'2HB'
p966
aF2.471600000000001
aF-0.38040000000000446
aF0.8061999999999998
aa(lp967
S'3HB'
p968
aF1.5746000000000024
aF-1.4313999999999993
aF-0.3128
aaaa(lp969
(lp970
(lp971
S'N'
p972
aF1.0161999999999978
aF0.5394000000000005
aF-0.8063999999999979
aa(lp973
S'H'
p974
aF1.7301999999999964
aF-0.06459999999999866
aF-0.4244
aa(lp975
S'CA'
p976
aF-0.38179999999999836
aF0.13639999999999475
aF-0.7094000000000001
aa(lp977
S'C'
p978
aF-0.6847999999999956
aF-0.47759999999999536
aF0.6505999999999993
aa(lp979
S'O'
p980
aF-1.6798000000000002
aF-0.13360000000000127
aF1.2895999999999987
aa(lp981
S'CB'
p982
aF-0.727800000000002
aF-0.843599999999995
aF-1.8213999999999984
aa(lp983
S'HA'
p984
aF-0.9997999999999934
aF1.0274
aF-0.8193999999999996
aa(lp985
S'1HB'
p986
aF-1.774799999999999
aF-1.1355999999999966
aF-1.736400000000001
aa(lp987
S'2HB'
p988
aF-0.5608000000000004
aF-0.3696000000000055
aF-2.7893999999999983
aa(lp989
S'3HB'
p990
aF-0.09680000000000177
aF-1.7266000000000048
aF-1.7373999999999987
aaaa(lp991
(lp992
(lp993
S'N'
p994
aF-1.2954000000000008
aF-0.6655999999999993
aF-0.054000000000002046
aa(lp995
S'H'
p996
aF-0.8353999999999999
aF-1.4176000000000015
aF-0.5450000000000017
aa(lp997
S'CA'
p998
aF-0.4883999999999986
aF0.4034000000000033
aF0.5240000000000009
aa(lp999
S'C'
p1000
aF0.948599999999999
aF0.3413999999999986
aF0.02200000000000557
aa(lp1001
S'O'
p1002
aF1.6706000000000003
aF1.3383999999999987
aF0.05299999999999727
aa(lp1003
S'CB'
p1004
aF-0.5213999999999999
aF0.32939999999999814
aF2.043999999999997
aa(lp1005
S'HA'
p1006
aF-0.9123999999999981
aF1.3563999999999994
aF0.2079999999999984
aa(lp1007
S'1HB'
p1008
aF0.08559999999999945
aF1.1334000000000004
aF2.4599999999999937
aa(lp1009
S'2HB'
p1010
aF-1.5493999999999986
aF0.43340000000000445
aF2.3910000000000053
aa(lp1011
S'3HB'
p1012
aF-0.1244000000000014
aF-0.6305999999999956
aF2.3689999999999998
aaaa(lp1013
(lp1014
(lp1015
S'N'
p1016
aF0.9595999999999998
aF0.11920000000000068
aF1.0940000000000012
aa(lp1017
S'H'
p1018
aF0.29660000000000025
aF0.7042000000000016
aF1.5799999999999983
aa(lp1019
S'CA'
p1020
aF0.5346
aF-0.5928000000000025
aF-0.10600000000000165
aa(lp1021
S'C'
p1022
aF-0.6024
aF0.1402000000000015
aF-0.8069999999999986
aa(lp1023
S'O'
p1024
aF-1.1884
aF-0.37080000000000124
aF-1.7609999999999992
aa(lp1025
S'CB'
p1026
aF0.11360000000000002
aF-2.0127999999999973
aF0.24200000000000088
aa(lp1027
S'HA'
p1028
aF1.3795999999999997
aF-0.6328000000000017
aF-0.7929999999999993
aa(lp1029
S'1HB'
p1030
aF-0.20139999999999997
aF-2.530799999999998
aF-0.6640000000000015
aa(lp1031
S'2HB'
p1032
aF0.9545999999999999
aF-2.5427999999999984
aF0.6890000000000001
aa(lp1033
S'3HB'
p1034
aF-0.7143999999999997
aF-1.983800000000001
aF0.9490000000000016
aaaa(lp1035
(lp1036
(lp1037
S'N'
p1038
aF-0.6214000000000004
aF-0.9897999999999996
aF0.3340000000000001
aa(lp1039
S'H'
p1040
aF-1.4223999999999997
aF-1.1407999999999994
aF0.9300000000000002
aa(lp1041
S'CA'
p1042
aF0.28859999999999975
aF0.11020000000000003
aF0.633
aa(lp1043
S'C'
p1044
aF0.41059999999999963
aF1.0601999999999994
aF-0.5510000000000002
aa(lp1045
S'O'
p1046
aF1.3446000000000007
aF0.9601999999999997
aF-1.346
aa(lp1047
S'CB'
p1048
aF1.6575999999999995
aF-0.4268000000000008
aF1.024
aa(lp1049
S'HA'
p1050
aF-0.12339999999999929
aF0.6712
aF1.472
aa(lp1051
S'1HB'
p1052
aF2.3256000000000006
aF0.4061999999999994
aF1.2440000000000002
aa(lp1053
S'2HB'
p1054
aF1.5626000000000007
aF-1.0588000000000004
aF1.907
aa(lp1055
S'3HB'
p1056
aF2.0666
aF-1.0117999999999998
aF0.20199999999999996
aaaa(lp1057
(lp1058
(lp1059
S'N'
p1060
aF0.2521999999999992
aF0.7654000000000003
aF1.0226000000000002
aa(lp1061
S'H'
p1062
aF0.6531999999999953
aF0.6833999999999996
aF1.9456000000000002
aa(lp1063
S'CA'
p1064
aF0.3351999999999976
aF-0.36960000000000115
aF0.10959999999999975
aa(lp1065
S'C'
p1066
aF-0.7077999999999947
aF-0.2635999999999995
aF-0.9953999999999998
aa(lp1067
S'O'
p1068
aF-0.5327999999999975
aF-0.8155999999999992
aF-2.0824000000000003
aa(lp1069
S'CB'
p1070
aF0.16720000000000546
aF-1.6756000000000022
aF0.8716000000000002
aa(lp1071
S'HA'
p1072
aF1.3192000000000064
aF-0.3565999999999995
aF-0.35739999999999994
aa(lp1073
S'1HB'
p1074
aF0.2311999999999984
aF-2.5126000000000017
aF0.17659999999999992
aa(lp1075
S'2HB'
p1076
aF0.955200000000002
aF-1.7635999999999996
aF1.620600000000001
aa(lp1077
S'3HB'
p1078
aF-0.8037999999999983
aF-1.6866000000000014
aF1.3645999999999998
aaaa(lp1079
(lp1080
(lp1081
S'N'
p1082
aF-0.6008000000000011
aF0.004999999999999406
aF0.9738000000000001
aa(lp1083
S'H'
p1084
aF-1.3087999999999993
aF0.7129999999999995
aF1.1078
aa(lp1085
S'CA'
p1086
aF-0.5037999999999998
aF-0.6669999999999995
aF-0.3161999999999999
aa(lp1087
S'C'
p1088
aF0.9032000000000002
aF-0.5609999999999996
aF-0.8882
aa(lp1089
S'O'
p1090
aF1.5101999999999998
aF0.5100000000000001
aF-0.8772000000000001
aa(lp1091
S'CB'
p1092
aF-1.5167999999999977
aF-0.08800000000000055
aF-1.2932000000000001
aa(lp1093
S'HA'
p1094
aF-0.7237999999999987
aF-1.7239999999999998
aF-0.16420000000000026
aa(lp1095
S'1HB'
p1096
aF-1.432799999999998
aF-0.6010000000000005
aF-2.2512
aa(lp1097
S'2HB'
p1098
aF-2.523799999999999
aF-0.22399999999999978
aF-0.8962
aa(lp1099
S'3HB'
p1100
aF-1.3217999999999974
aF0.9740000000000005
aF-1.4312000000000002
aaaa(lp1101
(lp1102
(lp1103
S'N'
p1104
aF-0.3338000000000022
aF0.8823999999999997
aF-0.708400000000001
aa(lp1105
S'H'
p1106
aF0.05420000000000294
aF0.957399999999999
aF-1.6373999999999995
aa(lp1107
S'CA'
p1108
aF0.5411999999999978
aF0.518399999999999
aF0.3995999999999995
aa(lp1109
S'C'
p1110
aF0.3992000000000019
aF-0.9576000000000001
aF0.7515999999999998
aa(lp1111
S'O'
p1112
aF-0.6608000000000004
aF-1.4005999999999978
aF1.1946000000000012
aa(lp1113
S'CB'
p1114
aF0.24320000000000297
aF1.383400000000001
aF1.6156000000000006
aa(lp1115
S'HA'
p1116
aF1.5711999999999988
aF0.6894000000000019
aF0.08859999999999957
aa(lp1117
S'1HB'
p1118
aF0.9041999999999973
aF1.0994000000000022
aF2.4345999999999997
aa(lp1119
S'2HB'
p1120
aF0.4052000000000021
aF2.431399999999999
aF1.3656000000000006
aa(lp1121
S'3HB'
p1122
aF-0.7927999999999983
aF1.2393999999999992
aF1.919599999999999
aaaa(lp1123
(lp1124
(lp1125
S'N'
p1126
aF0.674600000000001
aF1.1524000000000059
aF-0.06800000000000354
aa(lp1127
S'H'
p1128
aF0.23460000000000317
aF2.0343999999999967
aF-0.2869999999999976
aa(lp1129
S'CA'
p1130
aF-0.10840000000000034
aF0.10939999999999925
aF0.5820000000000022
aa(lp1131
S'C'
p1132
aF-0.3114000000000033
aF-1.0835999999999983
aF-0.3420000000000044
aa(lp1133
S'O'
p1134
aF-0.48940000000000056
aF-2.2126000000000032
aF0.11500000000000339
aa(lp1135
S'CB'
p1136
aF-1.4524000000000086
aF0.6614000000000059
aF1.0359999999999956
aa(lp1137
S'HA'
p1138
aF0.44459999999999694
aF-0.23559999999999962
aF1.4559999999999973
aa(lp1139
S'1HB'
p1140
aF-2.025400000000002
aF-0.12960000000000507
aF1.5200000000000045
aa(lp1141
S'2HB'
p1142
aF-1.2914000000000072
aF1.4753999999999992
aF1.7419999999999987
aa(lp1143
S'3HB'
p1144
aF-2.002400000000006
aF1.0324000000000013
aF0.17400000000000088
aaaa(lp1145
(lp1146
(lp1147
S'N'
p1148
aF-1.0957999999999999
aF-0.15839999999999982
aF-0.5972
aa(lp1149
S'H'
p1150
aF-0.5157999999999998
aF0.2246000000000002
aF-1.3302000000000005
aa(lp1151
S'CA'
p1152
aF-0.4617999999999995
aF-0.8084
aF0.5438000000000001
aa(lp1153
S'C'
p1154
aF0.9161999999999988
aF-0.2194000000000002
aF0.8178000000000001
aa(lp1155
S'O'
p1156
aF1.1572000000000002
aF0.9615999999999998
aF0.5658000000000003
aa(lp1157
S'CB'
p1158
aF-0.3578000000000003
aF-2.3084000000000002
aF0.30879999999999974
aa(lp1159
S'HA'
p1160
aF-1.0818000000000005
aF-0.6314000000000002
aF1.4227999999999996
aa(lp1161
S'1HB'
p1162
aF0.11719999999999935
aF-2.7794
aF1.1688
aa(lp1163
S'2HB'
p1164
aF-1.3557999999999997
aF-2.7254
aF0.17180000000000017
aa(lp1165
S'3HB'
p1166
aF0.2381999999999998
aF-2.4964
aF-0.5831999999999997
aaaa(lp1167
(lp1168
(lp1169
S'N'
p1170
aF-1.103800000000004
aF-0.0852000000000018
aF0.7185999999999997
aa(lp1171
S'H'
p1172
aF-0.5847999999999985
aF0.2197999999999979
aF1.5295999999999996
aa(lp1173
S'CA'
p1174
aF-0.650800000000001
aF0.31880000000000164
aF-0.6063999999999996
aa(lp1175
S'C'
p1176
aF0.6171999999999996
aF-0.42420000000000047
aF-1.0064
aa(lp1177
S'O'
p1178
aF1.7222000000000037
aF-0.02919999999999729
aF-0.6353999999999995
aa(lp1179
S'CB'
p1180
aF-0.41979999999885836
aF1.8227999999999995
aF-0.6523999999999999
aa(lp1181
S'HA'
p1182
aF-1.4297999999999973
aF0.05980000000000134
aF-1.3243999999999996
aa(lp1183
S'1HB'
p1184
aF-0.08179999999914796
aF2.108800000000001
aF-1.6483999999999994
aa(lp1185
S'2HB'
p1186
aF-1.349799999999999
aF2.3408
aF-0.4214000000011332
aa(lp1187
S'3HB'
p1188
aF0.339200000001142
aF2.0958000000000028
aF0.08059999999914921
aaaa(lp1189
(lp1190
(lp1191
S'N'
p1192
aF0.4541999999999987
aF1.0431999999999988
aF0.3336
aa(lp1193
S'H'
p1194
aF0.9551999999999999
aF0.7312000000000012
aF1.1546
aa(lp1195
S'CA'
p1196
aF0.45620000000000116
aF0.2062000000000026
aF-0.8604
aa(lp1197
S'C'
p1198
aF-0.7067999999999991
aF-0.7768000000000015
aF-0.8454
aa(lp1199
S'O'
p1200
aF-1.1588000000000007
aF-1.203800000000001
aF0.21760000000000007
aa(lp1201
S'CB'
p1202
aF1.7771999999999992
aF-0.5388000000000019
aF-0.9824
aa(lp1203
S'HA'
p1204
aF0.3342000000000013
aF0.8541999999999987
aF-1.7274
aa(lp1205
S'1HB'
p1206
aF1.7631999999999999
aF-1.159799999999997
aF-1.8794
aa(lp1207
S'2HB'
p1208
aF2.5952000000000006
aF0.1782000000000039
aF-1.0514000000000001
aa(lp1209
S'3HB'
p1210
aF1.9212000000000011
aF-1.1698000000000022
aF-0.10739999999871323
aaaa(lp1211
(lp1212
(lp1213
S'N'
p1214
aF-0.6369999999999989
aF0.6397999999999996
aF1.0331999999999966
aa(lp1215
S'H'
p1216
aF-1.6320000000000037
aF0.46480000000000243
aF1.0142000000000053
aa(lp1217
S'CA'
p1218
aF0.27100000000000235
aF-0.3671999999999983
aF0.49719999999999515
aa(lp1219
S'C'
p1220
aF0.8200000000000018
aF0.05279999999999636
aF-0.8607999999999947
aa(lp1221
S'O'
p1222
aF1.1779999999999986
aF-0.7902000000000001
aF-1.6838000000000022
aa(lp1223
S'CB'
p1224
aF-0.4329999999999983
aF-1.7122000000000042
aF0.39019999999999583
aa(lp1225
S'HA'
p1226
aF1.1130000000000009
aF-0.46320000000000194
aF1.1821999999999975
aa(lp1227
S'1HB'
p1228
aF0.2579999999999971
aF-2.4542000000000015
aF-0.01080000000000041
aa(lp1229
S'2HB'
p1230
aF-0.7679999999999991
aF-2.027200000000002
aF1.3792000000000002
aa(lp1231
S'3HB'
p1232
aF-1.2920000000000003
aF-1.621200000000003
aF-0.2717999999999961
aaaa(lp1233
(lp1234
(lp1235
S'N'
p1236
aF-1.3689999999999998
aF-0.3332000000000007
aF-0.22460000000000022
aa(lp1237
S'H'
p1238
aF-1.142000000000003
aF-0.988200000000002
aF-0.9595999999999997
aa(lp1239
S'CA'
p1240
aF-0.39099999999999824
aF0.6817999999999997
aF0.14940000000000034
aa(lp1241
S'C'
p1242
aF0.9100000000000037
aF0.04479999999999945
aF0.6213999999999998
aa(lp1243
S'O'
p1244
aF1.9919999999999973
aF0.5948000000000035
aF0.41339999999999966
aa(lp1245
S'CB'
p1246
aF-0.9579999999999984
aF1.5907999999999987
aF1.2294000000000005
aa(lp1247
S'HA'
p1248
aF-0.16899999999999693
aF1.2797999999999987
aF-0.7346
aa(lp1249
S'1HB'
p1250
aF-0.21600000000000108
aF2.3428000000000013
aF1.4984000000000006
aa(lp1251
S'2HB'
p1252
aF-1.8560000000000016
aF2.0828000000000033
aF0.8574000000000005
aa(lp1253
S'3HB'
p1254
aF-1.2079999999999984
aF0.9987999999999999
aF2.1084
aaaa(lp1255
(lp1256
(lp1257
S'N'
p1258
aF-0.7706000000000002
aF1.0530000000000002
aF-0.5424000000000021
aa(lp1259
S'H'
p1260
aF-0.3065999999999999
aF1.5729999999999997
aF0.18859999999999963
aa(lp1261
S'CA'
p1262
aF-0.49559999999999993
aF-0.3720000000000006
aF-0.6834000000000003
aa(lp1263
S'C'
p1264
aF0.20640000000000003
aF-0.9229999999999989
aF0.5506000000000014
aa(lp1265
S'O'
p1266
aF1.3664
aF-1.3310000000000002
aF0.4866000000000014
aa(lp1267
S'CB'
p1268
aF0.34240000000000015
aF-0.6289999999999984
aF-1.9274
aa(lp1269
S'HA'
p1270
aF-1.4486
aF-0.8920000000000001
aF-0.7864000000000019
aa(lp1271
S'1HB'
p1272
aF0.5383999999999998
aF-1.698000000000001
aF-2.0193999999999988
aa(lp1273
S'2HB'
p1274
aF-0.19860000000000022
aF-0.2829999999999984
aF-2.8084000000000002
aa(lp1275
S'3HB'
p1276
aF1.2864
aF-0.09300000000000068
aF-1.8474000000000017
aaaa(lp1277
(lp1278
(lp1279
S'N'
p1280
aF-0.8522000000000005
aF0.14440000000000025
aF-0.8276000000000024
aa(lp1281
S'H'
p1282
aF-1.7912000000000006
aF0.4783999999999999
aF-0.9915999999999968
aa(lp1283
S'CA'
p1284
aF-0.20319999999999966
aF0.44339999999999974
aF0.4433999999999983
aa(lp1285
S'C'
p1286
aF1.2548000000000024
aF0.0024000000000008017
aF0.4364000000000004
aa(lp1287
S'O'
p1288
aF1.5917999999999985
aF-1.0686000000000007
aF0.9394000000000006
aa(lp1289
S'CB'
p1290
aF-0.9512000000000007
aF-0.22260000000000063
aF1.589399999999999
aa(lp1291
S'HA'
p1292
aF-0.22519999999999812
aF1.5243999999999993
aF0.5893999999999991
aa(lp1293
S'1HB'
p1294
aF-0.45519999999999855
aF0.01039999999999992
aF2.532399999999997
aa(lp1295
S'2HB'
p1296
aF-1.9772000000000005
aF0.14740000000000036
aF1.6184000000000025
aa(lp1297
S'3HB'
p1298
aF-0.9591999999999998
aF-1.3006
aF1.4403999999999981
aaaa(lp1299
(lp1300
(lp1301
S'N'
p1302
aF-1.2291999999999998
aF0.31539999999999824
aF0.4948000000000007
aa(lp1303
S'H'
p1304
aF-0.6551999999999999
aF1.062399999999998
aF0.8587999999999998
aa(lp1305
S'CA'
p1306
aF-0.6041999999999997
aF-0.7435999999999993
aF-0.28820000000000057
aa(lp1307
S'C'
p1308
aF0.9138000000000001
aF-0.6915999999999997
aF-0.1732000000000003
aa(lp1309
S'O'
p1310
aF1.5747999999999995
aF0.05740000000000277
aF-0.8921999999999997
aa(lp1311
S'CB'
p1312
aF-1.0282000000000002
aF-0.6446000000000026
aF-1.7462000000000006
aa(lp1313
S'HA'
p1314
aF-0.9371999999999999
aF-1.7016000000000013
aF0.11179999999999987
aa(lp1315
S'1HB'
p1316
aF-0.5531999999999996
aF-1.442600000000001
aF-2.3182
aa(lp1317
S'2HB'
p1318
aF-2.1111999999999993
aF-0.7426000000000016
aF-1.8181999999999998
aa(lp1319
S'3HB'
p1320
aF-0.7241999999999998
aF0.3194000000000031
aF-2.1491999999999996
aaaa(lp1321
(lp1322
(lp1323
S'N'
p1324
aF0.760199999999999
aF0.808799999999998
aF0.771399999999997
aa(lp1325
S'H'
p1326
aF1.4012000000000007
aF0.07280000000000086
aF1.031400000000002
aa(lp1327
S'CA'
p1328
aF-0.6118000000000009
aF0.4637999999999991
aF0.4184000000000026
aa(lp1329
S'C'
p1330
aF-0.6548000000000002
aF-0.7411999999999992
aF-0.5105999999999995
aa(lp1331
S'O'
p1332
aF-0.8947999999999986
aF-0.6041999999999987
aF-1.7106000000000023
aa(lp1333
S'CB'
p1334
aF-1.307799999999999
aF1.6537999999999968
aF-0.22560000000000285
aa(lp1335
S'HA'
p1336
aF-1.1397999999999997
aF0.19879999999999853
aF1.3343999999999994
aa(lp1337
S'1HB'
p1338
aF-2.3307999999999987
aF1.3808000000000007
aF-0.4835999999999984
aa(lp1339
S'2HB'
p1340
aF-1.3208000000000006
aF2.4908
aF0.4734000000000023
aa(lp1341
S'3HB'
p1342
aF-0.771800000000001
aF1.943799999999996
aF-1.1275999999999968
aaaa(lp1343
(lp1344
(lp1345
S'N'
p1346
aF0.9739999999999982
aF-0.6383999999999956
aF0.20080000000000098
aa(lp1347
S'H'
p1348
aF1.4169999999999958
aF-1.1364000000000005
aF-0.5581999999999994
aa(lp1349
S'CA'
p1350
aF-0.48100000000000015
aF-0.6314000000000048
aF0.2927999999999997
aa(lp1351
S'C'
p1352
aF-1.0140000000000016
aF0.7825999999999966
aF0.47779999999999845
aa(lp1353
S'O'
p1354
aF-0.8959999999999921
aF1.6236000000000046
aF-0.4131999999999998
aa(lp1355
S'CB'
p1356
aF-0.9430000000000034
aF-1.5253999999999963
aF1.4347999999999992
aa(lp1357
S'HA'
p1358
aF-0.8809999999999916
aF-1.019399999999996
aF-0.6432000000000002
aa(lp1359
S'1HB'
p1360
aF-2.0320000000000022
aF-1.5094000000000052
aF1.4908000000000001
aa(lp1361
S'2HB'
p1362
aF-0.603
aF-2.5454000000000065
aF1.2588000000000008
aa(lp1363
S'3HB'
p1364
aF-0.5269999999999924
aF-1.1614000000000062
aF2.372799999999998
aaaa(lp1365
(lp1366
(lp1367
S'N'
p1368
aF-0.9497999999999983
aF-0.4847999999999999
aF0.5791999999999995
aa(lp1369
S'H'
p1370
aF-0.8208000000000005
aF-0.24180000000000135
aF1.5501999999999996
aa(lp1371
S'CA'
p1372
aF0.2092000000000006
aF-0.8707999999999991
aF-0.21779999999999944
aa(lp1373
S'C'
p1374
aF1.0301999999999985
aF0.34720000000000084
aF-0.6198000000000004
aa(lp1375
S'O'
p1376
aF0.5311999999999998
aF1.2501999999999995
aF-1.2917999999999992
aa(lp1377
S'CB'
p1378
aF-0.22979999999999945
aF-1.6448
aF-1.4517999999999993
aa(lp1379
S'HA'
p1380
aF0.8421999999999997
aF-1.5127999999999986
aF0.3952000000000001
aa(lp1381
S'1HB'
p1382
aF0.6461999999999982
aF-1.9248000000000012
aF-2.035799999999999
aa(lp1383
S'2HB'
p1384
aF-0.7658000000000008
aF-2.543800000000001
aF-1.1467999999999996
aa(lp1385
S'3HB'
p1386
aF-0.8848000000000006
aF-1.0208000000000013
aF-2.0577999999999994
aaaa(lp1387
(lp1388
(lp1389
S'N'
p1390
aF0.9912000000000034
aF-0.30820000000000014
aF-0.7674000000000021
aa(lp1391
S'H'
p1392
aF0.9922000000000011
aF0.6987999999999996
aF-0.6884000000000015
aa(lp1393
S'CA'
p1394
aF-0.11280000000000277
aF-1.0642000000000003
aF-0.18739999999999668
aa(lp1395
S'C'
p1396
aF-1.122800000000001
aF-0.1401999999999991
aF0.4806000000000026
aa(lp1397
S'O'
p1398
aF-0.7478000000000009
aF0.8137999999999999
aF1.1625999999999976
aa(lp1399
S'CB'
p1400
aF0.4111999999999982
aF-2.086199999999999
aF0.8106000000000009
aa(lp1401
S'HA'
p1402
aF-0.6237999999999986
aF-1.5891999999999988
aF-0.9943999999999988
aa(lp1403
S'1HB'
p1404
aF-0.42480000000000034
aF-2.6422
aF1.2346000000000004
aa(lp1405
S'2HB'
p1406
aF1.0872
aF-2.7762000000000002
aF0.30460000000000065
aa(lp1407
S'3HB'
p1408
aF0.9471999999999994
aF-1.5731999999999988
aF1.607599999999998
aaaa(lp1409
(lp1410
(lp1411
S'N'
p1412
aF1.2666000000000004
aF0.2703999999999994
aF-0.0234000000000004
aa(lp1413
S'H'
p1414
aF1.8805999999999976
aF0.8373999999999995
aF-0.5903999999999996
aa(lp1415
S'CA'
p1416
aF-0.05239999999999867
aF-0.08059999999999967
aF-0.5364000000000002
aa(lp1417
S'C'
p1418
aF-1.0894000000000013
aF-0.10259999999999814
aF0.5786
aa(lp1419
S'O'
p1420
aF-2.005399999999998
aF-0.924600000000001
aF0.5716000000000003
aa(lp1421
S'CB'
p1422
aF-0.004400000000000404
aF-1.4285999999999988
aF-1.2414000000000003
aa(lp1423
S'HA'
p1424
aF-0.34939999999999927
aF0.6834000000000031
aF-1.2553999999999996
aa(lp1425
S'1HB'
p1426
aF-0.9964000000000013
aF-1.6765999999999963
aF-1.6194000000000004
aa(lp1427
S'2HB'
p1428
aF0.698599999999999
aF-1.3795999999999993
aF-2.0724
aa(lp1429
S'3HB'
p1430
aF0.31759999999999877
aF-2.1945999999999968
aF-0.5384
aaaa(lp1431
(lp1432
(lp1433
S'N'
p1434
aF1.0687999999999993
aF-0.06939999999999953
aF0.7706000000000001
aa(lp1435
S'H'
p1436
aF0.4188000000000008
aF-0.3904000000000011
aF1.4746000000000001
aa(lp1437
S'CA'
p1438
aF0.5708000000000001
aF0.7246000000000009
aF-0.34640000000000004
aa(lp1439
S'C'
p1440
aF-0.4562000000000001
aF-0.05240000000000008
aF-1.1594
aa(lp1441
S'O'
p1442
aF-1.6022
aF-0.21240000000000023
aF-0.7394000000000001
aa(lp1443
S'CB'
p1444
aF1.7238000000000004
aF1.1686
aF-1.2354
aa(lp1445
S'HA'
p1446
aF0.07779999999999969
aF1.6076000000000001
aF0.059599999999999986
aa(lp1447
S'1HB'
p1448
aF1.3358000000000005
aF1.7605999999999988
aF-2.0644
aa(lp1449
S'2HB'
p1450
aF2.4198000000000004
aF1.7725999999999993
aF-0.6534
aa(lp1451
S'3HB'
p1452
aF2.2398000000000007
aF0.29359999999999997
aF-1.6254000000000002
aaaa(lp1453
(lp1454
(lp1455
S'N'
p1456
aF-1.0664000000000016
aF0.4493999999999915
aF0.6433999999999997
aa(lp1457
S'H'
p1458
aF-1.2064000000000021
aF1.2444000000000073
aF1.2514
aa(lp1459
S'CA'
p1460
aF0.2845999999999975
aF-0.05959999999999466
aF0.43939999999999974
aa(lp1461
S'C'
p1462
aF0.49860000000000326
aF-0.4896000000000015
aF-1.0055999999999998
aa(lp1463
S'O'
p1464
aF1.489600000000003
aF-1.1446000000000027
aF-1.3285999999999998
aa(lp1465
S'CB'
p1466
aF0.5596000000000032
aF-1.221600000000001
aF1.3834
aa(lp1467
S'HA'
p1468
aF0.9866000000000028
aF0.7454000000000125
aF0.6563999999999998
aa(lp1469
S'1HB'
p1470
aF1.5726000000000013
aF-1.5916000000000055
aF1.2194
aa(lp1471
S'2HB'
p1472
aF0.4596000000000018
aF-0.8846000000000114
aF2.4144
aa(lp1473
S'3HB'
p1474
aF-0.15339999999999776
aF-2.021599999999984
aF1.1924000000000001
aaaa(lp1475
(lp1476
(lp1477
S'N'
p1478
aF0.6971999999999952
aF-0.2708000000000027
aF1.0454000000000003
aa(lp1479
S'H'
p1480
aF0.15220000000000766
aF0.06920000000000079
aF1.8244000000000002
aa(lp1481
S'CA'
p1482
aF0.6731999999999942
aF0.4652000000000015
aF-0.21259999999999984
aa(lp1483
S'C'
p1484
aF-0.6707999999999998
aF0.3132000000000005
aF-0.9136000000000004
aa(lp1485
S'O'
p1486
aF-0.8517999999999972
aF-0.5768000000000001
aF-1.7436000000000003
aa(lp1487
S'CB'
p1488
aF1.799199999999999
aF-0.0028000000000019567
aF-1.1225999999999998
aa(lp1489
S'HA'
p1490
aF0.8161999999999949
aF1.5221999999999967
aF0.01040000000000001
aa(lp1491
S'1HB'
p1492
aF1.7682000000000073
aF0.5561999999999955
aF-2.0576000000000003
aa(lp1493
S'2HB'
p1494
aF2.758200000000002
aF0.16519999999999732
aF-0.6316000000000004
aa(lp1495
S'3HB'
p1496
aF1.681200000000004
aF-1.0647999999999995
aF-1.3306
aaaa(lp1497
(lp1498
(lp1499
S'N'
p1500
aF-1.2382000000000004
aF-0.14739999999999967
aF0.6409999999999968
aa(lp1501
S'H'
p1502
aF-1.4871999999999956
aF0.8075999999999987
aF0.8580000000000026
aa(lp1503
S'CA'
p1504
aF0.16980000000000062
aF-0.49939999999999996
aF0.502000000000001
aa(lp1505
S'C'
p1506
aF0.6797999999999915
aF-0.1843999999999987
aF-0.8990000000000024
aa(lp1507
S'O'
p1508
aF1.875800000000004
aF0.023599999999999687
aF-1.101999999999998
aa(lp1509
S'CB'
p1510
aF0.3827999999999944
aF-1.9714000000000014
aF0.822999999999999
aa(lp1511
S'HA'
p1512
aF0.7418000000000033
aF0.1026000000000003
aF1.207999999999997
aa(lp1513
S'1HB'
p1514
aF1.438799999999992
aF-2.2184000000000013
aF0.7139999999999972
aa(lp1515
S'2HB'
p1516
aF0.06779999999999677
aF-2.1684000000000005
aF1.8479999999999976
aa(lp1517
S'3HB'
p1518
aF-0.20519999999999938
aF-2.581400000000001
aF0.13900000000000148
aaaa(lp1519
(lp1520
(lp1521
S'N'
p1522
aF-0.25120000000000287
aF-0.10999999999999659
aF-1.1278000000000001
aa(lp1523
S'H'
p1524
aF0.1057999999999964
aF-0.11700000000000159
aF-2.0728000000000004
aa(lp1525
S'CA'
p1526
aF0.6158000000000016
aF0.3379999999999967
aF-0.04480000000000022
aa(lp1527
S'C'
p1528
aF0.21480000000000526
aF-0.297999999999999
aF1.2802000000000002
aa(lp1529
S'O'
p1530
aF-0.6852000000000004
aF0.18700000000000044
aF1.9652000000000007
aa(lp1531
S'CB'
p1532
aF0.5838000000000051
aF1.8559999999999974
aF0.06619999999999956
aa(lp1533
S'HA'
p1534
aF1.6338000000000021
aF0.021999999999994652
aF-0.27280000000000004
aa(lp1535
S'1HB'
p1536
aF1.235800000000006
aF2.175
aF0.8791999999999992
aa(lp1537
S'2HB'
p1538
aF0.928800000000004
aF2.295999999999995
aF-0.8698000000000005
aa(lp1539
S'3HB'
p1540
aF-0.4341999999999956
aF2.184
aF0.26819999999999944
aaaa(lp1541
(lp1542
(lp1543
S'N'
p1544
aF0.8637999999999977
aF-0.8871999999999985
aF0.4452000000000014
aa(lp1545
S'H'
p1546
aF0.8408000000000015
aF-0.9562000000000012
aF1.452199999999999
aa(lp1547
S'CA'
p1548
aF0.6067999999999998
aF0.40280000000000055
aF-0.18380000000000005
aa(lp1549
S'C'
p1550
aF-0.8881999999999977
aF0.6678000000000012
aF-0.3047999999999986
aa(lp1551
S'O'
p1552
aF-1.4232000000000014
aF0.772799999999998
aF-1.4088000000000016
aa(lp1553
S'CB'
p1554
aF1.2667999999999964
aF0.4668000000000006
aF-1.5528
aa(lp1555
S'HA'
p1556
aF1.0328000000000017
aF1.1798000000000015
aF0.4502000000000004
aa(lp1557
S'1HB'
p1558
aF1.0657999999999959
aF1.4358000000000017
aF-2.0098000000000007
aa(lp1559
S'2HB'
p1560
aF2.3438000000000017
aF0.33379999999999793
aF-1.4438000000000017
aa(lp1561
S'3HB'
p1562
aF0.8667999999999978
aF-0.32319999999999854
aF-2.1868000000000003
aaaa(lp1563
(lp1564
(lp1565
S'N'
p1566
aF0.025199999999999514
aF0.35579999999999934
aF1.2676000000000003
aa(lp1567
S'H'
p1568
aF-0.4668000000000013
aF1.177800000000002
aF1.5865999999999993
aa(lp1569
S'CA'
p1570
aF-0.5057999999999993
aF-0.39819999999999844
aF0.1385999999999987
aa(lp1571
S'C'
p1572
aF0.5762000000000015
aF-0.6721999999999995
aF-0.8984000000000004
aa(lp1573
S'O'
p1574
aF0.37119999999999964
aF-0.4632000000000033
aF-2.094399999999998
aa(lp1575
S'CB'
p1576
aF-1.6687999999999996
aF0.3497999999999991
aF-0.4974000000000006
aa(lp1577
S'HA'
p1578
aF-0.8637999999999998
aF-1.3581999999999994
aF0.5096000000000008
aa(lp1579
S'1HB'
p1580
aF-2.054799999999999
aF-0.225200000000004
aF-1.339399999999999
aa(lp1581
S'2HB'
p1582
aF-2.4598
aF0.48679999999999957
aF0.240599999999999
aa(lp1583
S'3HB'
p1584
aF-1.3277999999999985
aF1.3218000000000003
aF-0.8483999999999997
aaaa(lp1585
(lp1586
(lp1587
S'N'
p1588
aF1.185199999999999
aF-0.4361999999999995
aF-0.5000000000000029
aa(lp1589
S'H'
p1590
aF1.4372000000000014
aF-1.380200000000002
aF-0.24599999999999791
aa(lp1591
S'CA'
p1592
aF0.364200000000001
aF0.3498000000000019
aF0.41399999999999865
aa(lp1593
S'C'
p1594
aF-0.9998000000000034
aF0.6527999999999992
aF-0.19300000000000064
aa(lp1595
S'O'
p1596
aF-1.9867999999999981
aF0.8138000000000005
aF0.5250000000000028
aa(lp1597
S'CB'
p1598
aF1.0761999999999972
aF1.6417999999999964
aF0.7859999999999985
aa(lp1599
S'HA'
p1600
aF0.2052000000000021
aF-0.23819999999999908
aF1.3170000000000044
aa(lp1601
S'1HB'
p1602
aF0.4511999999999972
aF2.217799999999997
aF1.4689999999999912
aa(lp1603
S'2HB'
p1604
aF2.024199999999998
aF1.4087999999999994
aF1.2720000000000027
aa(lp1605
S'3HB'
p1606
aF1.2641999999999995
aF2.2257999999999996
aF-0.11300000000000236
aaaa(lp1607
(lp1608
(lp1609
S'N'
p1610
aF-0.27979999999999733
aF0.6774000000000007
aF1.0330000000000013
aa(lp1611
S'H'
p1612
aF-0.11779999999999831
aF1.334400000000001
aF0.28300000000000125
aa(lp1613
S'CA'
p1614
aF-0.39080000000000154
aF-0.742600000000001
aF0.7219999999999942
aa(lp1615
S'C'
p1616
aF0.03019999999999783
aF-1.0265999999999997
aF-0.7139999999999986
aa(lp1617
S'O'
p1618
aF0.7581999999999993
aF-0.24260000000000098
aF-1.323999999999998
aa(lp1619
S'CB'
p1620
aF-1.8127999999999986
aF-1.2276000000000002
aF0.9620000000000033
aa(lp1621
S'HA'
p1622
aF0.2852000000000004
aF-1.287599999999999
aF1.382000000000005
aa(lp1623
S'1HB'
p1624
aF-1.8788000000000011
aF-2.2896000000000014
aF0.7259999999999991
aa(lp1625
S'2HB'
p1626
aF-2.0787999999999967
aF-1.0716000000000014
aF2.0079999999999956
aa(lp1627
S'3HB'
p1628
aF-2.4987999999999984
aF-0.6715999999999995
aF0.3259999999999934
aaaa(lp1629
(lp1630
(lp1631
S'N'
p1632
aF-0.025599999999999668
aF-0.5515999999999991
aF1.2106000000000001
aa(lp1633
S'H'
p1634
aF0.23340000000000066
aF0.4043999999999968
aF1.4075999999999993
aa(lp1635
S'CA'
p1636
aF-0.4826000000000004
aF-0.9016000000000005
aF-0.12939999999999968
aa(lp1637
S'C'
p1638
aF-0.4065999999999999
aF0.29639999999999983
aF-1.0673999999999986
aa(lp1639
S'O'
p1640
aF0.6813999999999993
aF0.752400000000003
aF-1.4214000000000013
aa(lp1641
S'CB'
p1642
aF-1.9026000000000003
aF-1.4455999999999976
aF-0.08040000000000021
aa(lp1643
S'HA'
p1644
aF0.17839999999999917
aF-1.6745999999999968
aF-0.5213999999999992
aa(lp1645
S'1HB'
p1646
aF-2.2296000000000005
aF-1.7026000000000026
aF-1.0883999999999994
aa(lp1647
S'2HB'
p1648
aF-1.9295999999999995
aF-2.336600000000003
aF0.5475999999999999
aa(lp1649
S'3HB'
p1650
aF-2.5675999999999997
aF-0.6895999999999972
aF0.33459999999999895
aaaa(lp1651
(lp1652
(lp1653
S'N'
p1654
aF-0.3605999999999966
aF-0.6152000000000001
aF-1.0807999999999978
aa(lp1655
S'H'
p1656
aF-0.6326000000000022
aF-0.12319999999999925
aF-1.9198000000000035
aa(lp1657
S'CA'
p1658
aF-0.6416000000000025
aF-0.016199999999999923
aF0.21820000000000156
aa(lp1659
S'C'
p1660
aF0.620399999999998
aF0.5677999999999997
aF0.8402000000000014
aa(lp1661
S'O'
p1662
aF1.0144000000000033
aF0.18679999999999947
aF1.9421999999999984
aa(lp1663
S'CB'
p1664
aF-1.2646000000000073
aF-1.0431999999999975
aF1.1521999999999992
aa(lp1665
S'HA'
p1666
aF-1.3485999999999962
aF0.7998000000000026
aF0.06820000000000298
aa(lp1667
S'1HB'
p1668
aF-1.4696000000000056
aF-0.5801999999999999
aF2.1172000000000026
aa(lp1669
S'2HB'
p1670
aF-2.1966000000000094
aF-1.4092000000000007
aF0.7201999999999968
aa(lp1671
S'3HB'
p1672
aF-0.5766000000000048
aF-1.8761999999999994
aF1.2871999999999972
aaaa(lp1673
(lp1674
(lp1675
S'N'
p1676
aF-1.2824000000000004
aF-0.06679999999999997
aF-0.43559999999999943
aa(lp1677
S'H'
p1678
aF-1.6793999999999998
aF0.6811999999999998
aF-0.9866000000000014
aa(lp1679
S'CA'
p1680
aF-0.20939999999999978
aF0.23420000000000019
aF0.5043999999999983
aa(lp1681
S'C'
p1682
aF1.0615999999999999
aF-0.5267999999999999
aF0.15240000000000145
aa(lp1683
S'O'
p1684
aF2.1096
aF-0.3218000000000001
aF0.7654000000000011
aa(lp1685
S'CB'
p1686
aF-0.6433999999999999
aF-0.09079999999999999
aF1.9263999999999952
aa(lp1687
S'HA'
p1688
aF0.00960000000000054
aF1.3002
aF0.4373999999999981
aa(lp1689
S'1HB'
p1690
aF0.1676
aF0.14019999999999988
aF2.6164
aa(lp1691
S'2HB'
p1692
aF-1.5194000000000005
aF0.5052000000000001
aF2.184399999999998
aa(lp1693
S'3HB'
p1694
aF-0.8903999999999997
aF-1.1488
aF1.998399999999998
aaaa(lp1695
(lp1696
(lp1697
S'N'
p1698
aF0.30479999999999957
aF-0.00300000000000149
aF-1.2975999999999999
aa(lp1699
S'H'
p1700
aF0.9898000000000001
aF0.7280000000000001
aF-1.1655999999999949
aa(lp1701
S'CA'
p1702
aF-0.005200000000000004
aF-0.8949999999999975
aF-0.1876000000000005
aa(lp1703
S'C'
p1704
aF-0.10319999999999986
aF-0.1280000000000015
aF1.1243999999999972
aa(lp1705
S'O'
p1706
aF-1.1862
aF0.2980000000000004
aF1.5263999999999982
aa(lp1707
S'CB'
p1708
aF1.0428000000000002
aF-1.9930000000000034
aF-0.08060000000000116
aa(lp1709
S'HA'
p1710
aF-0.9762000000000001
aF-1.351999999999998
aF-0.38059999999999833
aa(lp1711
S'1HB'
p1712
aF0.7978
aF-2.6509999999999976
aF0.7523999999999973
aa(lp1713
S'2HB'
p1714
aF1.0608
aF-2.5700000000000016
aF-1.0055999999999983
aa(lp1715
S'3HB'
p1716
aF2.0218
aF-1.5460000000000007
aF0.08640000000000043
aaaa(lp1717
(lp1718
(lp1719
S'N'
p1720
aF-0.36599999999999966
aF0.054400000000001114
aF-1.227999999999999
aa(lp1721
S'H'
p1722
aF-1.2920000000000016
aF-0.28160000000000096
aF-1.0040000000000007
aa(lp1723
S'CA'
p1724
aF0.7650000000000006
aF-0.39059999999999917
aF-0.42400000000000054
aa(lp1725
S'C'
p1726
aF0.472999999999999
aF-0.24660000000000082
aF1.0640000000000007
aa(lp1727
S'O'
p1728
aF0.4200000000000017
aF0.8643999999999998
aF1.5919999999999994
aa(lp1729
S'CB'
p1730
aF2.0180000000000007
aF0.3894000000000002
aF-0.7939999999999998
aa(lp1731
S'HA'
p1732
aF0.9329999999999927
aF-1.4476000000000013
aF-0.6300000000000001
aa(lp1733
S'1HB'
p1734
aF2.853999999999999
aF0.04639999999999844
aF-0.18499999999999978
aa(lp1735
S'2HB'
p1736
aF2.2479999999999905
aF0.2303999999999995
aF-1.848
aa(lp1737
S'3HB'
p1738
aF1.8520000000000039
aF1.4513999999999996
aF-0.615999999999999
aaaa(lp1739
(lp1740
(lp1741
S'N'
p1742
aF0.5147999999999993
aF-0.21640000000000154
aF1.284000000000006
aa(lp1743
S'H'
p1744
aF-0.28020000000000067
aF0.3065999999999981
aF1.6219999999999999
aa(lp1745
S'CA'
p1746
aF0.4928000000000008
aF-0.740399999999999
aF-0.07699999999999818
aa(lp1747
S'C'
p1748
aF0.15380000000000038
aF0.352600000000001
aF-1.0820000000000078
aa(lp1749
S'O'
p1750
aF-0.8811999999999998
aF0.2976000000000013
aF-1.7469999999999999
aa(lp1751
S'CB'
p1752
aF-0.5012000000000008
aF-1.8874000000000009
aF-0.1869999999999976
aa(lp1753
S'HA'
p1754
aF1.4898000000000007
aF-1.1134
aF-0.3119999999999976
aa(lp1755
S'1HB'
p1756
aF-0.5052000000000003
aF-2.2674
aF-1.2079999999999984
aa(lp1757
S'2HB'
p1758
aF-0.21219999999999928
aF-2.6864000000000003
aF0.4959999999999951
aa(lp1759
S'3HB'
p1760
aF-1.4971999999999994
aF-1.5313999999999992
aF0.07200000000000273
aaaa(lp1761
(lp1762
(lp1763
S'N'
p1764
aF-0.9678000000000055
aF0.408400000000006
aF0.5293999999999983
aa(lp1765
S'H'
p1766
aF-1.2667999999999977
aF0.651400000000001
aF1.4633999999999958
aa(lp1767
S'CA'
p1768
aF0.031200000000003888
aF-0.6386000000000053
aF0.35339999999999633
aa(lp1769
S'C'
p1770
aF0.6371999999999984
aF-0.5925999999999988
aF-1.043599999999995
aa(lp1771
S'O'
p1772
aF1.5662000000000007
aF0.17139999999999705
aF-1.3025999999999953
aa(lp1773
S'CB'
p1774
aF-0.5828000000000004
aF-2.0055999999999954
aF0.6194000000000017
aa(lp1775
S'HA'
p1776
aF0.8331999999999964
aF-0.46560000000000346
aF1.0714
aa(lp1777
S'1HB'
p1778
aF0.17519999999999514
aF-2.777600000000001
aF0.48439999999999656
aa(lp1779
S'2HB'
p1780
aF-0.9588000000000052
aF-2.0426000000000015
aF1.6414000000000073
aa(lp1781
S'3HB'
p1782
aF-1.4027999999999934
aF-2.1775999999999924
aF-0.0755999999999915
aaaa(lp1783
(lp1784
(lp1785
S'N'
p1786
aF-0.8472000000000008
aF0.7688000000000003
aF0.5330000000000028
aa(lp1787
S'H'
p1788
aF-1.3641999999999967
aF0.7898000000000011
aF1.4
aa(lp1789
S'CA'
p1790
aF0.3937999999999988
aF0.006799999999999828
aF0.46499999999999764
aa(lp1791
S'C'
p1792
aF0.8267999999999986
aF-0.21420000000000025
aF-0.978
aa(lp1793
S'O'
p1794
aF0.9908000000000001
aF-1.3512000000000008
aF-1.4200000000000004
aa(lp1795
S'CB'
p1796
aF0.23680000000000234
aF-1.3272
aF1.180000000000001
aa(lp1797
S'HA'
p1798
aF1.1738
aF0.583799999999998
aF0.9630000000000025
aa(lp1799
S'1HB'
p1800
aF1.1718000000000046
aF-1.884200000000002
aF1.1210000000000035
aa(lp1801
S'2HB'
p1802
aF-0.015200000000000102
aF-1.1521999999999992
aF2.2260000000000004
aa(lp1803
S'3HB'
p1804
aF-0.5581999999999994
aF-1.9012000000000016
aF0.7070000000000023
aaaa(lp1805
(lp1806
(lp1807
S'N'
p1808
aF-0.8179999999999994
aF1.0998
aF-0.304999999999999
aa(lp1809
S'H'
p1810
aF-1.7449999999999988
aF0.7728000000000002
aF-0.07199999999999847
aa(lp1811
S'CA'
p1812
aF0.2049999999999968
aF0.12880000000000003
aF-0.6730000000000012
aa(lp1813
S'C'
p1814
aF0.6489999999999994
aF-0.6882000000000001
aF0.5339999999999996
aa(lp1815
S'O'
p1816
aF1.7090000000000019
aF-1.3132000000000001
aF0.5159999999999989
aa(lp1817
S'CB'
p1818
aF1.398000000000002
aF0.8298000000000005
aF-1.304999999999999
aa(lp1819
S'HA'
p1820
aF-0.2260000000000006
aF-0.5592000000000006
aF-1.4009999999999991
aa(lp1821
S'1HB'
p1822
aF2.154000000000002
aF0.09179999999999922
aF-1.574000000000001
aa(lp1823
S'2HB'
p1824
aF1.0759999999999992
aF1.3618000000000006
aF-2.1999999999999984
aa(lp1825
S'3HB'
p1826
aF1.8209999999999966
aF1.5388000000000002
aF-0.5949999999999982
aaaa(lp1827
(lp1828
(lp1829
S'N'
p1830
aF-1.0323999999999998
aF-0.14799999999999044
aF0.7738000000000003
aa(lp1831
S'H'
p1832
aF-1.0444000000000002
aF0.26399999999998724
aF1.695799999999999
aa(lp1833
S'CA'
p1834
aF-0.31939999999999885
aF0.5350000000000023
aF-0.2992000000000001
aa(lp1835
S'C'
p1836
aF1.049600000000001
aF-0.08999999999999772
aF-0.5362000000000002
aa(lp1837
S'O'
p1838
aF1.346599999999998
aF-0.5610000000000014
aF-1.6341999999999992
aa(lp1839
S'CB'
p1840
aF-0.17740000000000294
aF2.015999999999997
aF0.017800000000000083
aa(lp1841
S'HA'
p1842
aF-0.9004000000000019
aF0.42400000000001226
aF-1.2162
aa(lp1843
S'1HB'
p1844
aF0.35760000000000075
aF2.5120000000000062
aF-0.7931999999999999
aa(lp1845
S'2HB'
p1846
aF-1.1664
aF2.461999999999995
aF0.12580000000000063
aa(lp1847
S'3HB'
p1848
aF0.37860000000000155
aF2.1370000000000062
aF0.9457999999999991
aaaa(lp1849
(lp1850
(lp1851
S'N'
p1852
aF-0.23599999999999852
aF-1.0119999999999947
aF-0.6943999999999961
aa(lp1853
S'H'
p1854
aF0.1779999999999994
aF-1.880000000000004
aF-1.0034000000000005
aa(lp1855
S'CA'
p1856
aF0.5740000000000002
aF-0.0719999999999972
aF0.07059999999999747
aa(lp1857
S'C'
p1858
aF-0.1480000000000011
aF1.2569999999999966
aF0.25160000000000193
aa(lp1859
S'O'
p1860
aF-0.368
aF1.7069999999999994
aF1.3755999999999973
aa(lp1861
S'CB'
p1862
aF1.9189999999999992
aF0.14399999999999677
aF-0.6083999999999976
aa(lp1863
S'HA'
p1864
aF0.7430000000000007
aF-0.4979999999999992
aF1.0596000000000019
aa(lp1865
S'1HB'
p1866
aF2.511999999999999
aF0.8480000000000044
aF-0.02539999999999907
aa(lp1867
S'2HB'
p1868
aF2.447999999999999
aF-0.8060000000000062
aF-0.6783999999999979
aa(lp1869
S'3HB'
p1870
aF1.7600000000000002
aF0.5449999999999929
aF-1.6083999999999974
aaaa(lp1871
(lp1872
(lp1873
S'N'
p1874
aF-0.6884000000000015
aF0.7813999999999994
aF0.33899999999999864
aa(lp1875
S'H'
p1876
aF-1.4883999999999986
aF1.0584000000000002
aF-0.2120000000000033
aa(lp1877
S'CA'
p1878
aF-0.41440000000000055
aF-0.6375999999999975
aF0.5290000000000035
aa(lp1879
S'C'
p1880
aF0.9206000000000003
aF-1.028600000000003
aF-0.09199999999999875
aa(lp1881
S'O'
p1882
aF1.6706000000000003
aF-0.17359999999999903
aF-0.5640000000000001
aa(lp1883
S'CB'
p1884
aF-1.537399999999998
aF-1.4785999999999988
aF-0.060000000000002274
aa(lp1885
S'HA'
p1886
aF-0.3534000000000006
aF-0.8306000000000024
aF1.6000000000000014
aa(lp1887
S'1HB'
p1888
aF-1.318399999999997
aF-2.535600000000001
aF0.09000000000000341
aa(lp1889
S'2HB'
p1890
aF-2.476399999999998
aF-1.2296000000000036
aF0.43599999999999994
aa(lp1891
S'3HB'
p1892
aF-1.6244000000000014
aF-1.2736000000000005
aF-1.125
aaaa(lp1893
(lp1894
(lp1895
S'N'
p1896
aF-0.4943999999999903
aF0.3603999999999985
aF-1.2301999999999977
aa(lp1897
S'H'
p1898
aF-0.17939999999999262
aF-0.36959999999999127
aF-1.8532000000000024
aa(lp1899
S'CA'
p1900
aF0.301600000000002
aF0.6794000000000011
aF-0.050199999999998204
aa(lp1901
S'C'
p1902
aF0.25759999999999084
aF-0.4526000000000039
aF0.9667999999999977
aa(lp1903
S'O'
p1904
aF0.11459999999999007
aF-0.21760000000000446
aF2.1668000000000007
aa(lp1905
S'CB'
p1906
aF-0.18340000000001172
aF1.9763999999999982
aF0.580800000000002
aa(lp1907
S'HA'
p1908
aF1.3376000000000032
aF0.8063999999999965
aF-0.3652000000000031
aa(lp1909
S'1HB'
p1910
aF0.42060000000000175
aF2.2014000000000067
aF1.4598
aa(lp1911
S'2HB'
p1912
aF-0.09139999999999879
aF2.7894000000000005
aF-0.1402000000000016
aa(lp1913
S'3HB'
p1914
aF-1.2263999999999897
aF1.8704000000000036
aF0.8747999999999989
aaaa(lp1915
(lp1916
(lp1917
S'N'
p1918
aF0.6218000000000001
aF0.31779999999999975
aF1.0269999999999997
aa(lp1919
S'H'
p1920
aF1.3067999999999997
aF-0.2191999999999993
aF0.5160000000000002
aa(lp1921
S'CA'
p1922
aF-0.4832000000000002
aF0.9337999999999994
aF0.302
aa(lp1923
S'C'
p1924
aF-1.0171999999999992
aF0.005800000000002114
aF-0.7819999999999998
aa(lp1925
S'O'
p1926
aF-0.42820000000000047
aF-1.038200000000002
aF-1.0630000000000002
aa(lp1927
S'CB'
p1928
aF-0.04420000000085596
aF2.258800000000002
aF-0.3049999999999993
aa(lp1929
S'HA'
p1930
aF-1.2912000000000001
aF1.1197999999999992
aF1.0100000000000002
aa(lp1931
S'1HB'
p1932
aF-0.8802000000000005
aF2.7068000000000025
aF-0.8429999999999997
aa(lp1933
S'2HB'
p1934
aF0.2797999999999997
aF2.9328000000000016
aF0.48799999999999993
aa(lp1935
S'3HB'
p1936
aF0.7807999999999999
aF2.086799999999998
aF-0.9950000000000008
aaaa(lp1937
(lp1938
(lp1939
S'N'
p1940
aF-0.7926000000000044
aF-0.7545999999999978
aF0.5336000000000002
aa(lp1941
S'H'
p1942
aF-1.2855999999999994
aF-0.18659999999999996
aF1.2075999999999998
aa(lp1943
S'CA'
p1944
aF-0.4646000000000015
aF-0.18759999999999763
aF-0.7683999999999994
aa(lp1945
S'C'
p1946
aF1.0173999999999979
aF0.15039999999999623
aF-0.8643999999999995
aa(lp1947
S'O'
p1948
aF1.5254000000000076
aF0.9783999999999992
aF-0.10840000000000113
aa(lp1949
S'CB'
p1950
aF-1.3075999999999908
aF1.050400000000002
aF-1.0354000000000005
aa(lp1951
S'HA'
p1952
aF-0.6865999999999957
aF-0.9366
aF-1.5294000000000003
aa(lp1953
S'1HB'
p1954
aF-1.0506
aF1.462400000000001
aF-2.0113999999999996
aa(lp1955
S'2HB'
p1956
aF-2.3636000000000026
aF0.7813999999999964
aF-1.0213999999999994
aa(lp1957
S'3HB'
p1958
aF-1.1136000000000024
aF1.7953999999999994
aF-0.2653999999999993
aaaa(lp1959
(lp1960
(lp1961
S'N'
p1962
aF1.3126000000000004
aF-0.022200000000002242
aF-0.25699999999999645
aa(lp1963
S'H'
p1964
aF1.6496000000000002
aF-0.4201999999999984
aF0.6079999999999984
aa(lp1965
S'CA'
p1966
aF-0.013400000000000033
aF-0.39019999999999727
aF-0.7400000000000005
aa(lp1967
S'C'
p1968
aF-1.0724000000000011
aF0.5837999999999994
aF-0.24000000000000063
aa(lp1969
S'O'
p1970
aF-1.8763999999999996
aF0.24879999999999852
aF0.6289999999999992
aa(lp1971
S'CB'
p1972
aF-0.3564
aF-1.810199999999999
aF-0.31199999999999617
aa(lp1973
S'HA'
p1974
aF-0.0024000000000008017
aF-0.3432000000000002
aF-1.8289999999999993
aa(lp1975
S'1HB'
p1976
aF-1.3494000000000022
aF-2.071200000000002
aF-0.6799999999999983
aa(lp1977
S'2HB'
p1978
aF0.37660000000000055
aF-2.5021999999999993
aF-0.725
aa(lp1979
S'3HB'
p1980
aF-0.34439999999999954
aF-1.8751999999999966
aF0.775
aaaa(lp1981
(lp1982
(lp1983
S'N'
p1984
aF-0.46000000000000013
aF1.1356000000000024
aF-0.16460000000000719
aa(lp1985
S'H'
p1986
aF-0.5379999999999996
aF1.5565999999999947
aF-1.0795999999999992
aa(lp1987
S'CA'
p1988
aF0.6920000000000008
aF0.2936000000000034
aF0.1343999999999994
aa(lp1989
S'C'
p1990
aF0.33100000000000024
aF-1.1834000000000002
aF0.05340000000001055
aa(lp1991
S'O'
p1992
aF-0.025000000000001306
aF-1.8024
aF1.0563999999999965
aa(lp1993
S'CB'
p1994
aF1.2480000000000018
aF0.6266000000000018
aF1.511400000000009
aa(lp1995
S'HA'
p1996
aF1.4600000000000015
aF0.4915999999999967
aF-0.613599999999991
aa(lp1997
S'1HB'
p1998
aF2.1080000000000014
aF-0.009399999999993813
aF1.7204000000000121
aa(lp1999
S'2HB'
p2000
aF1.5560000000000016
aF1.6725999999999943
aF1.5364000000000146
aa(lp2001
S'3HB'
p2002
aF0.48000000000000115
aF0.4576000000000049
aF2.264399999999995
aaaa(lp2003
(lp2004
(lp2005
S'N'
p2006
aF0.01499999999999999
aF-0.31980000000000075
aF1.1108000000000005
aa(lp2007
S'H'
p2008
aF0.644
aF-0.25479999999999947
aF1.8988000000000007
aa(lp2009
S'CA'
p2010
aF0.569
aF-0.44679999999999964
aF-0.23119999999999835
aa(lp2011
S'C'
p2012
aF-0.04000000000000017
aF0.5781999999999989
aF-1.178200000000001
aa(lp2013
S'O'
p2014
aF-1.1879999999999997
aF0.4432000000000009
aF-1.6002000000000016
aa(lp2015
S'CB'
p2016
aF0.3479999999999999
aF-1.8558000000000021
aF-0.7641999999999995
aa(lp2017
S'HA'
p2018
aF1.641
aF-0.25479999999999947
aF-0.17520000000000097
aa(lp2019
S'1HB'
p2020
aF0.767
aF-1.9347999999999992
aF-1.7671999999999997
aa(lp2021
S'2HB'
p2022
aF0.839
aF-2.573800000000002
aF-0.10820000000000078
aa(lp2023
S'3HB'
p2024
aF-0.719
aF-2.067800000000002
aF-0.8002000000000009
aaaa(lp2025
(lp2026
(lp2027
S'N'
p2028
aF0.030000000000000072
aF-0.003800000000000403
aF1.2406000000000001
aa(lp2029
S'H'
p2030
aF-0.179
aF0.7932000000000002
aF1.8236000000000003
aa(lp2031
S'CA'
p2032
aF-0.712
aF-0.18980000000000036
aF-0.0014000000000001125
aa(lp2033
S'C'
p2034
aF0.14799999999999996
aF0.1452000000000005
aF-1.2124000000000001
aa(lp2035
S'O'
p2036
aF0.7129999999999999
aF-0.7448
aF-1.8504
aa(lp2037
S'CB'
p2038
aF-1.9729999999999999
aF0.6611999999999988
aF0.003599999999999781
aa(lp2039
S'HA'
p2040
aF-0.995
aF-1.2398000000000011
aF-0.07239999999999983
aa(lp2041
S'1HB'
p2042
aF-2.517
aF0.5112000000000002
aF-0.9294000000000001
aa(lp2043
S'2HB'
p2044
aF-2.606
aF0.3701999999999984
aF0.8426000000000001
aa(lp2045
S'3HB'
p2046
aF-1.703
aF1.7111999999999994
aF0.10060000000000022
aaaa(lp2047
(lp2048
(lp2049
S'N'
p2050
aF0.7486000000000048
aF0.4570000000000022
aF-0.9650000000000002
aa(lp2051
S'H'
p2052
aF1.4645999999999986
aF0.36099999999999854
aF-0.2589999999999999
aa(lp2053
S'CA'
p2054
aF-0.4794000000000039
aF-0.31900000000000117
aF-0.8400000000000002
aa(lp2055
S'C'
p2056
aF-1.1464000000000056
aF-0.08299999999999705
aF0.509
aa(lp2057
S'O'
p2058
aF-0.5873999999999937
aF-0.4160000000000025
aF1.5550000000000004
aa(lp2059
S'CB'
p2060
aF-0.19239999999999777
aF-1.8010000000000006
aF-1.0359999999999998
aa(lp2061
S'HA'
p2062
aF-1.1704000000000065
aF0.012000000000001832
aF-1.6159999999999999
aa(lp2063
S'1HB'
p2064
aF-1.1183999999999998
aF-2.367000000000003
aF-0.9400000000000003
aa(lp2065
S'2HB'
p2066
aF0.23060000000000405
aF-1.9609999999999972
aF-2.0280000000000005
aa(lp2067
S'3HB'
p2068
aF0.5175999999999961
aF-2.1360000000000015
aF-0.2819999999999996
aaaa(lp2069
(lp2070
(lp2071
S'N'
p2072
aF-0.2159999999999968
aF0.24000000000000343
aF1.0850000000000015
aa(lp2073
S'H'
p2074
aF0.15099999999999342
aF1.0779999999999972
aF1.5129999999999988
aa(lp2075
S'CA'
p2076
aF0.6540000000000077
aF-0.5629999999999938
aF0.23399999999999893
aa(lp2077
S'C'
p2078
aF0.2939999999999941
aF-0.39599999999999225
aF-1.236
aa(lp2079
S'O'
p2080
aF-0.8829999999999985
aF-0.35900000000001453
aF-1.5959999999999994
aa(lp2081
S'CB'
p2082
aF0.5789999999999906
aF-2.030000000000007
aF0.634000000000001
aa(lp2083
S'HA'
p2084
aF1.6770000000000038
aF-0.21199999999999475
aF0.3690000000000005
aa(lp2085
S'1HB'
p2086
aF1.2339999999999918
aF-2.615999999999991
aF-0.011000000000000298
aa(lp2087
S'2HB'
p2088
aF0.8959999999999979
aF-2.140999999999997
aF1.671
aa(lp2089
S'3HB'
p2090
aF-0.4449999999999818
aF-2.3830000000000156
aF0.5279999999999994
aaaa(lp2091
(lp2092
(lp2093
S'N'
p2094
aF-0.9832000000000001
aF-0.2763999999999953
aF0.44079999999999586
aa(lp2095
S'H'
p2096
aF-1.9871999999999996
aF-0.3464000000000027
aF0.3587999999999951
aa(lp2097
S'CA'
p2098
aF-0.20520000000000138
aF0.17159999999999798
aF-0.7082000000000015
aa(lp2099
S'C'
p2100
aF1.2828000000000017
aF-0.06739999999999213
aF-0.49320000000000164
aa(lp2101
S'O'
p2102
aF1.8928000000000011
aF0.5186000000000064
aF0.40179999999999794
aa(lp2103
S'CB'
p2104
aF-0.4701999999999984
aF1.644599999999997
aF-0.9852000000000025
aa(lp2105
S'HA'
p2106
aF-0.5162000000000013
aF-0.41140000000000043
aF-1.5752000000000024
aa(lp2107
S'1HB'
p2108
aF0.11779999999999902
aF1.9635999999999996
aF-1.8462000000000032
aa(lp2109
S'2HB'
p2110
aF-1.5302000000000007
aF1.7905999999999977
aF-1.1952000000000034
aa(lp2111
S'3HB'
p2112
aF-0.18819999999999837
aF2.2346000000000004
aF-0.11420000000000385
aaaa(lp2113
(lp2114
(lp2115
S'N'
p2116
aF0.674600000000001
aF1.1524000000000059
aF-0.06800000000000354
aa(lp2117
S'H'
p2118
aF0.23460000000000317
aF2.0343999999999967
aF-0.2869999999999976
aa(lp2119
S'CA'
p2120
aF-0.10840000000000034
aF0.10939999999999925
aF0.5820000000000022
aa(lp2121
S'C'
p2122
aF-0.3114000000000033
aF-1.0835999999999983
aF-0.3420000000000044
aa(lp2123
S'O'
p2124
aF-0.48940000000000056
aF-2.2126000000000032
aF0.11500000000000339
aa(lp2125
S'CB'
p2126
aF-1.4524000000000086
aF0.6614000000000059
aF1.0359999999999956
aa(lp2127
S'HA'
p2128
aF0.44459999999999694
aF-0.23559999999999962
aF1.4559999999999973
aa(lp2129
S'1HB'
p2130
aF-2.025400000000002
aF-0.12960000000000507
aF1.5200000000000045
aa(lp2131
S'2HB'
p2132
aF-1.2914000000000072
aF1.4753999999999992
aF1.7419999999999987
aa(lp2133
S'3HB'
p2134
aF-2.002400000000006
aF1.0324000000000013
aF0.17400000000000088
aaaa(lp2135
(lp2136
(lp2137
S'N'
p2138
aF-0.7404000000000011
aF0.3205999999999903
aF0.7003999999999998
aa(lp2139
S'H'
p2140
aF-1.1103999999999985
aF1.1886000000000139
aF1.0603999999999991
aa(lp2141
S'CA'
p2142
aF-0.42739999999999867
aF0.21660000000000537
aF-0.7195999999999984
aa(lp2143
S'C'
p2144
aF0.9135999999999989
aF-0.4714000000000113
aF-0.9385999999999995
aa(lp2145
S'O'
p2146
aF1.3645999999999994
aF-1.2543999999999982
aF-0.10260000000000083
aa(lp2147
S'CB'
p2148
aF-0.426400000000001
aF1.5945999999999914
aF-1.364599999999998
aa(lp2149
S'HA'
p2150
aF-1.1973999999999982
aF-0.3943999999999847
aF-1.1915999999999998
aa(lp2151
S'1HB'
p2152
aF-0.19140000000000157
aF1.4995999999999925
aF-2.4246000000000003
aa(lp2153
S'2HB'
p2154
aF-1.4103999999999992
aF2.0506000000000086
aF-1.2506000000000008
aa(lp2155
S'3HB'
p2156
aF0.3216000000000001
aF2.221600000000001
aF-0.8816000000000009
aaaa(lp2157
(lp2158
(lp2159
S'N'
p2160
aF0.6038000000000003
aF-1.089800000000001
aF-0.13319999999999646
aa(lp2161
S'H'
p2162
aF1.2527999999999995
aF-0.5138000000000005
aF-0.6501999999999996
aa(lp2163
S'CA'
p2164
aF-0.2071999999999995
aF-0.4807999999999993
aF0.9138000000000005
aa(lp2165
S'C'
p2166
aF-1.0501999999999996
aF0.6622000000000015
aF0.36279999999999857
aa(lp2167
S'O'
p2168
aF-0.5992000000000008
aF1.4221999999999995
aF-0.4932000000000031
aa(lp2169
S'CB'
p2170
aF0.676799999999999
aF0.0132000000000005
aF2.0498000000000034
aa(lp2171
S'HA'
p2172
aF-0.8861999999999999
aF-1.2408000000000043
aF1.300800000000001
aa(lp2173
S'1HB'
p2174
aF0.05679999999999982
aF0.46519999999999867
aF2.823799999999997
aa(lp2175
S'2HB'
p2176
aF1.2297999999999998
aF-0.8257999999999981
aF2.4718000000000004
aa(lp2177
S'3HB'
p2178
aF1.3777999999999995
aF0.7542000000000002
aF1.6677999999999984
aaaa(lp2179
(lp2180
(lp2181
S'N'
p2182
aF0.3717999999999976
aF0.1887999999999977
aF1.156400000000005
aa(lp2183
S'H'
p2184
aF1.3178000000000025
aF0.31580000000000724
aF0.8263999999999925
aa(lp2185
S'CA'
p2186
aF-0.7371999999999972
aF0.6287999999999954
aF0.3194000000000017
aa(lp2187
S'C'
p2188
aF-0.6522000000000034
aF0.017800000000005412
aF-1.073599999999999
aa(lp2189
S'O'
p2190
aF-0.30019999999999947
aF-1.1512000000000058
aF-1.2286000000000001
aa(lp2191
S'CB'
p2192
aF-0.7641999999999982
aF2.147800000000001
aF0.22939999999999827
aa(lp2193
S'HA'
p2194
aF-1.6652000000000016
aF0.2858000000000061
aF0.7784000000000049
aa(lp2195
S'1HB'
p2196
aF-1.5982000000000014
aF2.4608000000000034
aF-0.39860000000000184
aa(lp2197
S'2HB'
p2198
aF-0.8842000000000028
aF2.5688000000000075
aF1.2283999999999935
aa(lp2199
S'3HB'
p2200
aF0.16980000000000486
aF2.502800000000005
aF-0.20359999999999445
aaaa(lp2201
(lp2202
(lp2203
S'N'
p2204
aF-1.2255999999999996
aF-0.6432000000000009
aF0.10299999999999872
aa(lp2205
S'H'
p2206
aF-1.1416
aF-1.4471999999999994
aF0.7090000000000003
aa(lp2207
S'CA'
p2208
aF-0.054600000000000384
aF-0.1862000000000002
aF-0.6369999999999998
aa(lp2209
S'C'
p2210
aF0.6633999999999995
aF0.9327999999999996
aF0.10500000000000116
aa(lp2211
S'O'
p2212
aF1.7584000000000004
aF1.343800000000001
aF-0.2800000000000004
aa(lp2213
S'CB'
p2214
aF-0.4565999999999997
aF0.27579999999999955
aF-2.0300000000000002
aa(lp2215
S'HA'
p2216
aF0.6364000000000003
aF-1.024200000000001
aF-0.7280000000000009
aa(lp2217
S'1HB'
p2218
aF0.4284000000000001
aF0.6138000000000006
aF-2.5699999999999994
aa(lp2219
S'2HB'
p2220
aF-0.9166000000000005
aF-0.5521999999999998
aF-2.5699999999999994
aa(lp2221
S'3HB'
p2222
aF-1.1675999999999997
aF1.0957999999999999
aF-1.9499999999999986
aaaa(lp2223
(lp2224
(lp2225
S'N'
p2226
aF0.3278
aF-0.5592000000000003
aF1.2456000000000003
aa(lp2227
S'H'
p2228
aF-0.5092
aF-1.1111999999999997
aF1.1206000000000003
aa(lp2229
S'CA'
p2230
aF0.5498
aF0.5987999999999992
aF0.388600000000001
aa(lp2231
S'C'
p2232
aF0.27579999999999993
aF0.26280000000000064
aF-1.0724000000000011
aa(lp2233
S'O'
p2234
aF-0.6441999999999998
aF0.8088000000000001
aF-1.6824000000000006
aa(lp2235
S'CB'
p2236
aF1.9718
aF1.1147999999999993
aF0.5536000000000001
aa(lp2237
S'HA'
p2238
aF-0.1472000000000003
aF1.3807999999999994
aF0.6886000000000017
aa(lp2239
S'1HB'
p2240
aF2.1228000000000002
aF1.9797999999999996
aF-0.09339999999999833
aa(lp2241
S'2HB'
p2242
aF2.1348
aF1.4057999999999997
aF1.5916000000000003
aa(lp2243
S'3HB'
p2244
aF2.6778
aF0.3317999999999997
aF0.2816000000000017
aaaa(lp2245
(lp2246
(lp2247
S'N'
p2248
aF0.9904
aF-0.9210000000000009
aF0.35339999999999994
aa(lp2249
S'H'
p2250
aF1.1624
aF-1.4949999999999988
aF-0.4596
aa(lp2251
S'CA'
p2252
aF0.4953999999999998
aF0.43800000000000083
aF0.1724
aa(lp2253
S'C'
p2254
aF-1.0195999999999998
aF0.4569999999999992
aF0.02040000000000004
aa(lp2255
S'O'
p2256
aF-1.6285999999999998
aF1.5209999999999995
aF-0.08659999999999997
aa(lp2257
S'CB'
p2258
aF1.1574000000000002
aF1.0860000000000007
aF-1.0346000000000002
aa(lp2259
S'HA'
p2260
aF0.7494000000000003
aF1.0119999999999991
aF1.0644
aa(lp2261
S'1HB'
p2262
aF0.7773999999999999
aF2.1010000000000013
aF-1.1566
aa(lp2263
S'2HB'
p2264
aF2.2363999999999997
aF1.1180000000000008
aF-0.8845999999999999
aa(lp2265
S'3HB'
p2266
aF0.9324000000000001
aF0.505000000000001
aF-1.9276
aaaa(lp2267
(lp2268
(lp2269
S'N'
p2270
aF-0.7345999999999988
aF0.7530000000000001
aF0.9366000000000003
aa(lp2271
S'H'
p2272
aF-1.2745999999999982
aF1.1090000000000018
aF0.16060000000000052
aa(lp2273
S'CA'
p2274
aF0.07439999999999863
aF-0.4450000000000003
aF0.7485999999999997
aa(lp2275
S'C'
p2276
aF0.38539999999999863
aF-0.6739999999999995
aF-0.7254000000000005
aa(lp2277
S'O'
p2278
aF1.5493999999999999
aF-0.7430000000000021
aF-1.1204
aa(lp2279
S'CB'
p2280
aF-0.6315999999999973
aF-1.658999999999999
aF1.3346
aa(lp2281
S'HA'
p2282
aF1.0203999999999964
aF-0.30100000000000193
aF1.2706
aa(lp2283
S'1HB'
p2284
aF-0.014599999999999991
aF-2.5459999999999994
aF1.1856000000000009
aa(lp2285
S'2HB'
p2286
aF-0.7946000000000011
aF-1.5050000000000026
aF2.4006000000000007
aa(lp2287
S'3HB'
p2288
aF-1.5906000000000007
aF-1.7980000000000018
aF0.8366000000000007
aaaa(lp2289
(lp2290
(lp2291
S'N'
p2292
aF-0.11859999999999786
aF0.2867999999999995
aF1.0687999999999995
aa(lp2293
S'H'
p2294
aF0.4093999999999937
aF0.8288000000000011
aF1.7378
aa(lp2295
S'CA'
p2296
aF0.5954000000000008
aF-0.5592000000000041
aF0.11880000000000024
aa(lp2297
S'C'
p2298
aF0.15339999999999349
aF-0.2761999999999887
aF-1.3111999999999995
aa(lp2299
S'O'
p2300
aF-1.03959999999999
aF-0.2802000000000078
aF-1.6142000000000003
aa(lp2301
S'CB'
p2302
aF0.3853999999999928
aF-2.0281999999999982
aF0.4558
aa(lp2303
S'HA'
p2304
aF1.6573999999999842
aF-0.3281999999999812
aF0.19180000000000064
aa(lp2305
S'1HB'
p2306
aF0.9244000000000085
aF-2.6461999999999932
aF-0.26119999999999877
aa(lp2307
S'2HB'
p2308
aF0.7593999999999881
aF-2.227199999999982
aF1.460799999999999
aa(lp2309
S'3HB'
p2310
aF-0.6765999999999905
aF-2.2631999999999834
aF0.4117999999999995
aaaa(lp2311
(lp2312
(lp2313
S'N'
p2314
aF-0.43480000000000274
aF0.9879999999999995
aF-0.21539999999999893
aa(lp2315
S'H'
p2316
aF-1.2878000000000007
aF1.4579999999999984
aF-0.4803999999999995
aa(lp2317
S'CA'
p2318
aF-0.5138000000000034
aF-0.2400000000000002
aF0.5656000000000017
aa(lp2319
S'C'
p2320
aF0.5231999999999992
aF-1.2560000000000002
aF0.10360000000000014
aa(lp2321
S'O'
p2322
aF1.713199999999997
aF-0.9500000000000011
aF0.02660000000000018
aa(lp2323
S'CB'
p2324
aF-1.911800000000003
aF-0.8350000000000009
aF0.4776000000000007
aa(lp2325
S'HA'
p2326
aF-0.2998000000000012
aF0.005999999999998451
aF1.6056000000000008
aa(lp2327
S'1HB'
p2328
aF-1.9548000000000023
aF-1.7510000000000012
aF1.066600000000001
aa(lp2329
S'2HB'
p2330
aF-2.636800000000001
aF-0.120000000000001
aF0.8656000000000006
aa(lp2331
S'3HB'
p2332
aF-2.1458000000000013
aF-1.0600000000000005
aF-0.561399999999999
aaaa(lp2333
(lp2334
(lp2335
S'N'
p2336
aF-1.0472000000000015
aF-0.9665999999999997
aF-0.31160000000000015
aa(lp2337
S'H'
p2338
aF-1.6641999999999988
aF-0.18760000000000332
aF-0.4946
aa(lp2339
S'CA'
p2340
aF0.2568000000000004
aF-0.7135999999999996
aF0.2893999999999998
aa(lp2341
S'C'
p2342
aF0.7598000000000005
aF0.6824000000000012
aF-0.0525999999999998
aa(lp2343
S'O'
p2344
aF1.6947999999999994
aF1.1854000000000013
aF0.5694000000000001
aa(lp2345
S'CB'
p2346
aF1.2608000000000001
aF-1.7636000000000038
aF-0.16260000000000013
aa(lp2347
S'HA'
p2348
aF0.1477999999999987
aF-0.7725999999999971
aF1.3724
aa(lp2349
S'1HB'
p2350
aF2.2297999999999996
aF-1.5615999999999985
aF0.29540000000000005
aa(lp2351
S'2HB'
p2352
aF0.9157999999999993
aF-2.752600000000001
aF0.14140000000000014
aa(lp2353
S'3HB'
p2354
aF1.3577999999999997
aF-1.7316000000000003
aF-1.2466
aaaa(lp2355
(lp2356
(lp2357
S'N'
p2358
aF-0.4187999999999761
aF0.723399999999998
aF0.9046000000000021
aa(lp2359
S'H'
p2360
aF-0.102800000000002
aF1.1233999999999753
aF1.776600000000002
aa(lp2361
S'CA'
p2362
aF0.2732000000000312
aF-0.4416000000000224
aF0.3656000000000006
aa(lp2363
S'C'
p2364
aF-0.23279999999999745
aF-0.7866000000000213
aF-1.0293999999999954
aa(lp2365
S'O'
p2366
aF0.4812000000000012
aF-0.6186000000000149
aF-2.017399999999995
aa(lp2367
S'CB'
p2368
aF0.10720000000003438
aF-1.6336000000000013
aF1.2976000000000028
aa(lp2369
S'HA'
p2370
aF1.3332000000000335
aF-0.20060000000000855
aF0.28660000000000707
aa(lp2371
S'1HB'
p2372
aF0.6292000000000257
aF-2.4956000000000245
aF0.8826000000000107
aa(lp2373
S'2HB'
p2374
aF0.5262000000000171
aF-1.3926000000000158
aF2.2746000000000066
aa(lp2375
S'3HB'
p2376
aF-0.9507999999999583
aF-1.8666000000000054
aF1.404600000000002
aaaa(lp2377
(lp2378
(lp2379
S'N'
p2380
aF-0.3512000000000007
aF-1.2483999999999995
aF0.6113999999999976
aa(lp2381
S'H'
p2382
aF-1.3362000000000003
aF-1.0443999999999989
aF0.701400000000001
aa(lp2383
S'CA'
p2384
aF0.5907999999999994
aF-0.14740000000000036
aF0.4534000000000105
aa(lp2385
S'C'
p2386
aF0.2658000000000002
aF0.6825999999999979
aF-0.7816000000000031
aa(lp2387
S'O'
p2388
aF0.8308000000000014
aF1.7576000000000007
aF-0.984600000000006
aa(lp2389
S'CB'
p2390
aF2.0158
aF-0.6764000000000039
aF0.37540000000000756
aa(lp2391
S'HA'
p2392
aF0.5027999999999985
aF0.5016000000000005
aF1.3253999999999961
aa(lp2393
S'1HB'
p2394
aF2.7078
aF0.15759999999999935
aF0.2583999999999889
aa(lp2395
S'2HB'
p2396
aF2.2527999999999984
aF-1.2184000000000055
aF1.2914000000000043
aa(lp2397
S'3HB'
p2398
aF2.107799999999999
aF-1.3474000000000033
aF-0.4765999999999963
aaaa(lp2399
(lp2400
(lp2401
S'N'
p2402
aF0.5130000000000002
aF1.2446000000000002
aF0.4758000000000003
aa(lp2403
S'H'
p2404
aF-0.22899999999999968
aF1.7986000000000004
aF0.07279999999999978
aa(lp2405
S'CA'
p2406
aF0.773
aF-0.08840000000000003
aF-0.05619999999999978
aa(lp2407
S'C'
p2408
aF-0.5230000000000002
aF-0.8624
aF-0.2602000000000004
aa(lp2409
S'O'
p2410
aF-0.5340000000000004
aF-2.0924000000000005
aF-0.2321999999999999
aa(lp2411
S'CB'
p2412
aF1.706
aF-0.8554000000000004
aF0.8688
aa(lp2413
S'HA'
p2414
aF1.2520000000000002
aF0.02260000000000062
aF-1.0282000000000002
aa(lp2415
S'1HB'
p2416
aF1.8910000000000005
aF-1.8473999999999995
aF0.4577999999999996
aa(lp2417
S'2HB'
p2418
aF2.6510000000000002
aF-0.3183999999999996
aF0.9587999999999999
aa(lp2419
S'3HB'
p2420
aF1.2479999999999998
aF-0.9493999999999998
aF1.8517999999999997
aaaa(lp2421
(lp2422
(lp2423
S'N'
p2424
aF-1.2045999999999935
aF-0.32719999999999916
aF-0.4
aa(lp2425
S'H'
p2426
aF-1.2825999999999964
aF-0.7382000000000005
aF0.5200000000000017
aa(lp2427
S'CA'
p2428
aF-0.2386000000000139
aF0.7407999999999987
aF-0.6220000000000013
aa(lp2429
S'C'
p2430
aF0.9504000000000075
aF0.6137999999999998
aF0.32299999999999895
aa(lp2431
S'O'
p2432
aF1.7753999999999963
aF-0.2891999999999989
aF0.17900000000000066
aa(lp2433
S'CB'
p2434
aF-0.9026000000000012
aF2.0998000000000006
aF-0.45400000000000207
aa(lp2435
S'HA'
p2436
aF0.13540000000000973
aF0.6537999999999989
aF-1.6419999999999972
aa(lp2437
S'1HB'
p2438
aF-0.1685999999999923
aF2.8877999999999973
aF-0.622999999999999
aa(lp2439
S'2HB'
p2440
aF-1.713600000000008
aF2.199800000000002
aF-1.1759999999999962
aa(lp2441
S'3HB'
p2442
aF-1.3026000000000066
aF2.1867999999999967
aF0.5549999999999983
aaaa(lp2443
(lp2444
(lp2445
S'N'
p2446
aF-0.5391999999999996
aF0.7088000000000008
aF-1.0043999999999997
aa(lp2447
S'H'
p2448
aF-0.22219999999999934
aF0.621800000000001
aF-1.959399999999998
aa(lp2449
S'CA'
p2450
aF-0.4042000000000016
aF-0.4292000000000008
aF-0.10440000000000112
aa(lp2451
S'C'
p2452
aF0.29580000000000123
aF-0.030199999999999914
aF1.188599999999998
aa(lp2453
S'O'
p2454
aF0.8697999999999994
aF-0.8712000000000011
aF1.8796000000000006
aa(lp2455
S'CB'
p2456
aF0.3517999999999986
aF-1.5592
aF-0.7883999999999987
aa(lp2457
S'HA'
p2458
aF-1.4042000000000017
aF-0.7791999999999988
aF0.1526000000000039
aa(lp2459
S'1HB'
p2460
aF0.44480000000000214
aF-2.4021999999999997
aF-0.10339999999999634
aa(lp2461
S'2HB'
p2462
aF-0.19120000000000054
aF-1.8732
aF-1.679399999999997
aa(lp2463
S'3HB'
p2464
aF1.3448000000000007
aF-1.2122000000000022
aF-1.0723999999999976
aaaa(lp2465
(lp2466
(lp2467
S'N'
p2468
aF0.5547999999999987
aF0.7802
aF0.48820000000000335
aa(lp2469
S'H'
p2470
aF0.7108000000000011
aF1.7491999999999999
aF0.25219999999999915
aa(lp2471
S'CA'
p2472
aF-0.7852000000000011
aF0.22320000000000012
aF0.3512000000000029
aa(lp2473
S'C'
p2474
aF-0.7421999999999983
aF-1.1748
aF-0.2527999999999963
aa(lp2475
S'O'
p2476
aF0.2617999999999995
aF-1.5778
aF-0.8388000000000091
aa(lp2477
S'CB'
p2478
aF-1.6561999999999997
aF1.1392
aF-0.4967999999999961
aa(lp2479
S'HA'
p2480
aF-1.2221999999999986
aF0.14320000000000005
aF1.347199999999998
aa(lp2481
S'1HB'
p2482
aF-2.6531999999999996
aF0.7091999999999998
aF-0.5897999999999997
aa(lp2483
S'2HB'
p2484
aF-1.7251999999999987
aF2.1182000000000003
aF-0.021800000000001773
aa(lp2485
S'3HB'
p2486
aF-1.2141999999999995
aF1.2462
aF-1.4868000000000052
aaaa(lp2487
(lp2488
(lp2489
S'N'
p2490
aF1.0894
aF0.14300000000000068
aF-0.16320000000000018
aa(lp2491
S'H'
p2492
aF1.7464
aF-0.14999999999999858
aF0.5458000000000004
aa(lp2493
S'CA'
p2494
aF-0.10060000000000022
aF0.8859999999999992
aF0.23579999999999984
aa(lp2495
S'C'
p2496
aF-1.3706
aF0.16600000000000037
aF-0.1972
aa(lp2497
S'O'
p2498
aF-1.3645999999999998
aF-1.0450000000000017
aF-0.42120000000000013
aa(lp2499
S'CB'
p2500
aF-0.06560000000000007
aF2.2929999999999993
aF-0.3451999999999996
aa(lp2501
S'HA'
p2502
aF-0.10860000000000022
aF0.9540000000000006
aF1.3237999999999999
aa(lp2503
S'1HB'
p2504
aF-0.9605999999999996
aF2.835000000000001
aF-0.03819999999998541
aa(lp2505
S'2HB'
p2506
aF0.8184000000000003
aF2.8150000000000013
aF0.01980000000001073
aa(lp2507
S'3HB'
p2508
aF-0.030599999999999912
aF2.2360000000000007
aF-1.4322
aaaa(lp2509
(lp2510
(lp2511
S'N'
p2512
aF0.8552
aF-1.1396000000000004
aF-0.18340000000000023
aa(lp2513
S'H'
p2514
aF1.3112000000000001
aF-0.8455999999999999
aF0.6686000000000001
aa(lp2515
S'CA'
p2516
aF-0.11580000000000011
aF-0.2526
aF-0.8123999999999998
aa(lp2517
S'C'
p2518
aF-0.44380000000000014
aF0.9324000000000006
aF0.08760000000000012
aa(lp2519
S'O'
p2520
aF-1.6068
aF1.3054
aF0.2395999999999998
aa(lp2521
S'CB'
p2522
aF-1.3838
aF-1.0166000000000002
aF-1.1633999999999998
aa(lp2523
S'HA'
p2524
aF0.3271999999999998
aF0.1373999999999997
aF-1.7294000000000005
aa(lp2525
S'1HB'
p2526
aF-2.0988
aF-0.34060000000000007
aF-1.6324
aa(lp2527
S'2HB'
p2528
aF-1.1418
aF-1.8256000000000003
aF-1.8544000000000005
aa(lp2529
S'3HB'
p2530
aF-1.8197999999999999
aF-1.4336
aF-0.2564000000000002
aaaa(lp2531
(lp2532
(lp2533
S'N'
p2534
aF0.8608000000000003
aF0.7052000000000014
aF-0.5557999999999964
aa(lp2535
S'H'
p2536
aF0.26279999999999964
aF0.4761999999999986
aF-1.3368000000000024
aa(lp2537
S'CA'
p2538
aF0.8817999999999994
aF-0.17680000000000007
aF0.6051999999999979
aa(lp2539
S'C'
p2540
aF-0.4961999999999989
aF-0.7657999999999987
aF0.8742000000000033
aa(lp2541
S'O'
p2542
aF-1.5092000000000005
aF-0.23880000000000123
aF0.4131999999999978
aa(lp2543
S'CB'
p2544
aF1.3858000000000008
aF0.5721999999999987
aF1.8301999999999992
aa(lp2545
S'HA'
p2546
aF1.561800000000001
aF-1.0017999999999994
aF0.3911999999999993
aa(lp2547
S'1HB'
p2548
aF1.3958000000000006
aF-0.09979999999999833
aF2.689200000000001
aa(lp2549
S'2HB'
p2550
aF2.3958000000000004
aF0.9372000000000007
aF1.6441999999999992
aa(lp2551
S'3HB'
p2552
aF0.7277999999999994
aF1.414200000000001
aF2.0381999999999976
aaaa(lp2553
(lp2554
(lp2555
S'N'
p2556
aF-1.0605999999999998
aF-0.7075999999999993
aF-0.6140000000000014
aa(lp2557
S'H'
p2558
aF-0.39159999999999917
aF-1.4635999999999996
aF-0.5719999999999998
aa(lp2559
S'CA'
p2560
aF-0.7006000000000004
aF0.5914000000000001
aF-0.05899999999999471
aa(lp2561
S'C'
p2562
aF0.5614
aF0.4964000000000013
aF0.7899999999999949
aa(lp2563
S'O'
p2564
aF1.5913999999999995
aF1.0833999999999975
aF0.45500000000000107
aa(lp2565
S'CB'
p2566
aF-1.8506000000000007
aF1.1524
aF0.7650000000000035
aa(lp2567
S'HA'
p2568
aF-0.49560000000000015
aF1.2693999999999974
aF-0.8869999999999976
aa(lp2569
S'1HB'
p2570
aF-1.5666
aF2.122399999999999
aF1.1730000000000047
aa(lp2571
S'2HB'
p2572
aF-2.7296000000000005
aF1.2693999999999974
aF0.131000000000003
aa(lp2573
S'3HB'
p2574
aF-2.0805999999999996
aF0.46940000000000026
aF1.581000000000006
aaaa(lp2575
(lp2576
(lp2577
S'N'
p2578
aF0.6876000000000089
aF-0.6086000000000027
aF-0.7146000000000015
aa(lp2579
S'H'
p2580
aF1.565599999999995
aF-1.0976
aF-0.6146
aa(lp2581
S'CA'
p2582
aF-0.2543999999999984
aF-0.6045999999999978
aF0.39940000000000275
aa(lp2583
S'C'
p2584
aF-0.617399999999998
aF0.8164000000000016
aF0.8084000000000018
aa(lp2585
S'O'
p2586
aF-1.3814000000000077
aF1.4943999999999988
aF0.12139999999999698
aa(lp2587
S'CB'
p2588
aF0.32360000000000455
aF-1.3656000000000006
aF1.5834000000000004
aa(lp2589
S'HA'
p2590
aF-1.167400000000009
aF-1.1015999999999977
aF0.07139999999999982
aa(lp2591
S'1HB'
p2592
aF-0.39139999999999886
aF-1.3536000000000001
aF2.407399999999998
aa(lp2593
S'2HB'
p2594
aF0.5235999999999932
aF-2.3965999999999994
aF1.2913999999999988
aa(lp2595
S'3HB'
p2596
aF1.2505999999999973
aF-0.8926000000000016
aF1.902400000000003
aaaa(lp2597
(lp2598
(lp2599
S'N'
p2600
aF0.25799999999999984
aF-0.15900000000000603
aF-1.0882000000000005
aa(lp2601
S'H'
p2602
aF-0.0629999999999981
aF-0.6370000000000005
aF-1.9172000000000011
aa(lp2603
S'CA'
p2604
aF-0.7170000000000016
aF0.27200000000000557
aF-0.09420000000000073
aa(lp2605
S'C'
p2606
aF-0.03599999999999708
aF0.6779999999999973
aF1.2068000000000012
aa(lp2607
S'O'
p2608
aF0.5579999999999969
aF-0.15399999999999636
aF1.8928000000000011
aa(lp2609
S'CB'
p2610
aF-1.7350000000000023
aF-0.8299999999999983
aF0.16280000000000072
aa(lp2611
S'HA'
p2612
aF-1.236
aF1.1470000000000056
aF-0.4862000000000002
aa(lp2613
S'1HB'
p2614
aF-2.4569999999999963
aF-0.492999999999995
aF0.9068000000000005
aa(lp2615
S'2HB'
p2616
aF-2.254999999999998
aF-1.0679999999999978
aF-0.7652000000000001
aa(lp2617
S'3HB'
p2618
aF-1.2230000000000019
aF-1.7180000000000035
aF0.529799999999998
aaaa(lp2619
(lp2620
(lp2621
S'N'
p2622
aF0.6537999999999994
aF0.5076000000000003
aF0.6745999999999992
aa(lp2623
S'H'
p2624
aF1.5797999999999994
aF0.8405999999999996
aF0.9026000000000007
aa(lp2625
S'CA'
p2626
aF0.5048000000000002
aF-0.5673999999999999
aF-0.29939999999999933
aa(lp2627
S'C'
p2628
aF-0.8641999999999995
aF-0.5224
aF-0.9653999999999996
aa(lp2629
S'O'
p2630
aF-1.8741999999999994
aF-0.25839999999999985
aF-0.312400000000001
aa(lp2631
S'CB'
p2632
aF0.7258000000000003
aF-1.9184000000000008
aF0.3655999999999998
aa(lp2633
S'HA'
p2634
aF1.2587999999999997
aF-0.4283999999999998
aF-1.0743999999999996
aa(lp2635
S'1HB'
p2636
aF0.6108000000000001
aF-2.710400000000001
aF-0.3744000000000004
aa(lp2637
S'2HB'
p2638
aF1.7297999999999998
aF-1.9574000000000005
aF0.7865999999999993
aa(lp2639
S'3HB'
p2640
aF-0.00620000000000211
aF-2.056400000000001
aF1.1605999999999999
aaaa(lp2641
(lp2642
(lp2643
S'N'
p2644
aF0.9439999999999993
aF0.41659999999999897
aF-0.32220000000000015
aa(lp2645
S'H'
p2646
aF1.3219999999999996
aF1.3155999999999999
aF-0.5872000000000007
aa(lp2647
S'CA'
p2648
aF-0.4060000000000003
aF0.06259999999999977
aF-0.7431999999999995
aa(lp2649
S'C'
p2650
aF-1.0409999999999981
aF-0.9303999999999988
aF0.22180000000000036
aa(lp2651
S'O'
p2652
aF-0.8190000000000006
aF-0.8643999999999998
aF1.4308
aa(lp2653
S'CB'
p2654
aF-0.3879999999999996
aF-0.5083999999999982
aF-2.1531999999999996
aa(lp2655
S'HA'
p2656
aF-1.0119999999999982
aF0.9685999999999986
aF-0.7371999999999993
aa(lp2657
S'1HB'
p2658
aF-1.403
aF-0.7683999999999997
aF-2.4542000000000015
aa(lp2659
S'2HB'
p2660
aF0.015000000000000858
aF0.23359999999999914
aF-2.8421999999999996
aa(lp2661
S'3HB'
p2662
aF0.23600000000000096
aF-1.4004000000000012
aF-2.1772000000000005
aaaa(lp2663
(lp2664
(lp2665
S'N'
p2666
aF0.2308000000000014
aF-1.1233999999999988
aF-0.09219999999999906
aa(lp2667
S'H'
p2668
aF0.4357999999999997
aF-1.2474000000000012
aF-1.0732000000000006
aa(lp2669
S'CA'
p2670
aF0.7798000000000009
aF0.03260000000000023
aF0.6067999999999991
aa(lp2671
S'C'
p2672
aF-0.1552000000000014
aF1.2306000000000004
aF0.5088000000000001
aa(lp2673
S'O'
p2674
aF-1.2912000000000006
aF1.1075999999999993
aF0.04980000000000041
aa(lp2675
S'CB'
p2676
aF2.1518000000000006
aF0.38560000000000183
aF0.051799999999999305
aa(lp2677
S'HA'
p2678
aF0.8818000000000012
aF-0.22640000000000013
aF1.6617999999999988
aa(lp2679
S'1HB'
p2680
aF2.548799999999999
aF1.2506
aF0.5837999999999994
aa(lp2681
S'2HB'
p2682
aF2.8258
aF-0.4613999999999995
aF0.1817999999999983
aa(lp2683
S'3HB'
p2684
aF2.0657999999999985
aF0.6206000000000013
aF-1.008200000000001
aaaa(lp2685
(lp2686
(lp2687
S'N'
p2688
aF-0.934399999999998
aF0.6542000000000001
aF-0.7329999999999985
aa(lp2689
S'H'
p2690
aF-0.8174000000000007
aF0.5911999999999977
aF-1.734000000000003
aa(lp2691
S'CA'
p2692
aF0.2435999999999993
aF0.5962000000000003
aF0.12400000000000075
aa(lp2693
S'C'
p2694
aF0.49359999999999926
aF-0.8208000000000013
aF0.622999999999996
aa(lp2695
S'O'
p2696
aF1.0146000000000002
aF-1.020799999999997
aF1.7200000000000046
aa(lp2697
S'CB'
p2698
aF0.09159999999999827
aF1.5511999999999986
aF1.2989999999999982
aa(lp2699
S'HA'
p2700
aF1.1086000000000014
aF0.8991999999999976
aF-0.4669999999999933
aa(lp2701
S'1HB'
p2702
aF0.9796000000000035
aF1.4972000000000036
aF1.9299999999999984
aa(lp2703
S'2HB'
p2704
aF-0.027400000000001513
aF2.5691999999999995
aF0.9280000000000028
aa(lp2705
S'3HB'
p2706
aF-0.7843999999999994
aF1.2731999999999999
aF1.8819999999999966
aaaa(lp2707
(lp2708
(lp2709
S'N'
p2710
aF-0.14920000000000005
aF0.053999999999999757
aF1.1278
aa(lp2711
S'H'
p2712
aF0.5748000000000001
aF-0.4819999999999999
aF1.5838000000000003
aa(lp2713
S'CA'
p2714
aF-0.8192
aF-0.5059999999999999
aF-0.03919999999999994
aa(lp2715
S'C'
p2716
aF-0.16520000000000007
aF-0.031000000000000208
aF-1.3311999999999997
aa(lp2717
S'O'
p2718
aF0.5588000000000001
aF0.9650000000000002
aF-1.3412000000000004
aa(lp2719
S'CB'
p2720
aF-2.2962000000000002
aF-0.14000000000000018
aF-0.02920000000000016
aa(lp2721
S'HA'
p2722
aF-0.7242000000000012
aF-1.5910000000000002
aF0.0027999999999998694
aa(lp2723
S'1HB'
p2724
aF-2.7832000000000003
aF-0.5660000000000004
aF-0.9072000000000002
aa(lp2725
S'2HB'
p2726
aF-2.7632000000000008
aF-0.5370000000000005
aF0.8717999999999997
aa(lp2727
S'3HB'
p2728
aF-2.4022
aF0.943
aF-0.04520000000000017
aaaa(lp2729
(lp2730
(lp2731
S'N'
p2732
aF1.1216000000000037
aF0.3247999999999962
aF0.26419999999999677
aa(lp2733
S'H'
p2734
aF1.0796000000000021
aF0.8817999999999984
aF1.1062000000000025
aa(lp2735
S'CA'
p2736
aF0.10360000000000298
aF0.5108000000000033
aF-0.7617999999999995
aa(lp2737
S'C'
p2738
aF-0.8534000000000048
aF-0.674199999999999
aF-0.8098000000000013
aa(lp2739
S'O'
p2740
aF-1.4514000000000038
aF-1.0431999999999988
aF0.20120000000000154
aa(lp2741
S'CB'
p2742
aF0.7536000000000087
aF0.720799999999997
aF-2.121799999999999
aa(lp2743
S'HA'
p2744
aF-0.4763999999999953
aF1.3978000000000037
aF-0.5067999999999969
aa(lp2745
S'1HB'
p2746
aF-0.020399999999992247
aF0.8588000000000022
aF-2.8768000000000016
aa(lp2747
S'2HB'
p2748
aF1.3885999999999996
aF1.6058000000000021
aF-2.0878
aa(lp2749
S'3HB'
p2750
aF1.3566000000000031
aF-0.14919999999999334
aF-2.374799999999999
aaaa(lp2751
(lp2752
(lp2753
S'N'
p2754
aF1.0695999999999999
aF0.10980000000000079
aF-0.6623999999999967
aa(lp2755
S'H'
p2756
aF1.0296000000000007
aF0.8558000000000003
aF0.01759999999999593
aa(lp2757
S'CA'
p2758
aF-0.026400000000000447
aF-0.8492000000000006
aF-0.7303999999999945
aa(lp2759
S'C'
p2760
aF-1.1013999999999995
aF-0.5322000000000005
aF0.3005999999999972
aa(lp2761
S'O'
p2762
aF-0.9714000000000007
aF0.41579999999999995
aF1.074599999999998
aa(lp2763
S'CB'
p2764
aF0.4965999999999992
aF-2.265199999999999
aF-0.5313999999999964
aa(lp2765
S'HA'
p2766
aF-0.4793999999999999
aF-0.7762000000000002
aF-1.719399999999999
aa(lp2767
S'1HB'
p2768
aF-0.33340000000000264
aF-2.9692
aF-0.5853999999999985
aa(lp2769
S'2HB'
p2770
aF1.221600000000001
aF-2.4981999999999998
aF-1.3113999999999977
aa(lp2771
S'3HB'
p2772
aF0.9746000000000008
aF-2.342199999999999
aF0.4435999999999979
aaaa(lp2773
(lp2774
(lp2775
S'N'
p2776
aF1.0495999999999994
aF0.34939999999999943
aF0.5191999999999998
aa(lp2777
S'H'
p2778
aF1.7286000000000015
aF0.09640000000000025
aF1.2232
aa(lp2779
S'CA'
p2780
aF-0.20040000000000036
aF-0.3955999999999998
aF0.4381999999999999
aa(lp2781
S'C'
p2782
aF-0.779400000000001
aF-0.3486000000000001
aF-0.9698
aa(lp2783
S'O'
p2784
aF-1.7983999999999996
aF0.29840000000000017
aF-1.2107999999999999
aa(lp2785
S'CB'
p2786
aF-1.2064000000000008
aF0.14739999999999948
aF1.4422
aa(lp2787
S'HA'
p2788
aF0.01060000000000172
aF-1.4386000000000008
aF0.6782
aa(lp2789
S'1HB'
p2790
aF-2.1353999999999993
aF-0.4195999999999998
aF1.3701999999999999
aa(lp2791
S'2HB'
p2792
aF-0.8024000000000007
aF0.0534000000000001
aF2.4502000000000006
aa(lp2793
S'3HB'
p2794
aF-1.4044000000000012
aF1.1964
aF1.2272
aaaa(lp2795
(lp2796
(lp2797
S'N'
p2798
aF-0.018599999999997896
aF1.0646
aF0.7558000000000014
aa(lp2799
S'H'
p2800
aF0.7423999999999978
aF1.4625999999999997
aF1.2868000000000002
aa(lp2801
S'CA'
p2802
aF-0.02060000000000034
aF-0.36739999999999845
aF0.4818000000000005
aa(lp2803
S'C'
p2804
aF0.004399999999998225
aF-0.6424000000000005
aF-1.0162000000000007
aa(lp2805
S'O'
p2806
aF-0.7075999999999979
aF-1.5174000000000007
aF-1.5082000000000015
aa(lp2807
S'CB'
p2808
aF-1.234599999999999
aF-1.0273999999999988
aF1.1207999999999998
aa(lp2809
S'HA'
p2810
aF0.8833999999999961
aF-0.7964000000000004
aF0.9158000000000015
aa(lp2811
S'1HB'
p2812
aF-1.221600000000001
aF-2.0954
aF0.9077999999999988
aa(lp2813
S'2HB'
p2814
aF-1.207599999999998
aF-0.8713999999999997
aF2.1987999999999994
aa(lp2815
S'3HB'
p2816
aF-2.143599999999998
aF-0.5863999999999996
aF0.7137999999999998
aaaa(lp2817
(lp2818
(lp2819
S'N'
p2820
aF0.39179999999999937
aF-1.111
aF0.4382000000000012
aa(lp2821
S'H'
p2822
aF1.2967999999999997
aF-0.9529999999999996
aF0.8571999999999982
aa(lp2823
S'CA'
p2824
aF0.0338000000000006
aF-0.38500000000000006
aF-0.7747999999999997
aa(lp2825
S'C'
p2826
aF-1.0201999999999996
aF0.6759999999999999
aF-0.4897999999999996
aa(lp2827
S'O'
p2828
aF-0.7022000000000002
aF1.773
aF-0.030800000000000084
aa(lp2829
S'CB'
p2830
aF-0.4612000000000004
aF-1.3490000000000004
aF-1.842800000000001
aa(lp2831
S'HA'
p2832
aF0.9267999999999994
aF0.12100000000000018
aF-1.1428000000000018
aa(lp2833
S'1HB'
p2834
aF-0.7251999999999998
aF-0.792
aF-2.7417999999999987
aa(lp2835
S'2HB'
p2836
aF0.3247999999999992
aF-2.0670000000000006
aF-2.0778000000000008
aa(lp2837
S'3HB'
p2838
aF-1.338200000000001
aF-1.8800000000000001
aF-1.474799999999999
aaaa(lp2839
(lp2840
(lp2841
S'N'
p2842
aF-0.7942000000000036
aF-1.0425999999999995
aF0.18300000000000693
aa(lp2843
S'H'
p2844
aF-1.4451999999999998
aF-1.267600000000001
aF0.921999999999997
aa(lp2845
S'CA'
p2846
aF-0.40619999999999834
aF0.34740000000000115
aF-0.02400000000000091
aa(lp2847
S'C'
p2848
aF1.0878000000000014
aF0.4683999999999998
aF-0.2950000000000017
aa(lp2849
S'O'
p2850
aF1.5578000000000003
aF1.4943999999999995
aF-0.7860000000000014
aa(lp2851
S'CB'
p2852
aF-0.7961999999999989
aF1.1913999999999987
aF1.1809999999999974
aa(lp2853
S'HA'
p2854
aF-0.9361999999999995
aF0.7194000000000009
aF-0.9009999999999962
aa(lp2855
S'1HB'
p2856
aF-0.5002000000000066
aF2.226399999999999
aF1.01100000000001
aa(lp2857
S'2HB'
p2858
aF-1.8752000000000066
aF1.1414000000000015
aF1.3269999999999982
aa(lp2859
S'3HB'
p2860
aF-0.29220000000000823
aF0.8113999999999997
aF2.0690000000000026
aaaa(lp2861
(lp2862
(lp2863
S'N'
p2864
aF0.4807999999999993
aF0.8864
aF-1.037
aa(lp2865
S'H'
p2866
aF-0.3071999999999992
aF0.5494
aF-1.572
aa(lp2867
S'CA'
p2868
aF0.7538000000000007
aF0.3014
aF0.2710000000000002
aa(lp2869
S'C'
p2870
aF-0.4972000000000005
aF-0.3376000000000001
aF0.8600000000000001
aa(lp2871
S'O'
p2872
aF-0.4302000000000003
aF-1.3996
aF1.4779999999999998
aa(lp2873
S'CB'
p2874
aF1.304799999999999
aF1.3564
aF1.218
aa(lp2875
S'HA'
p2876
aF1.4997999999999994
aF-0.48160000000000003
aF0.14200000000000013
aa(lp2877
S'1HB'
p2878
aF1.5038000000000007
aF0.9044
aF2.19
aa(lp2879
S'2HB'
p2880
aF2.2307999999999995
aF1.7634
aF0.811
aa(lp2881
S'3HB'
p2882
aF0.5767999999999993
aF2.1584000000000003
aF1.3339999999999999
aaaa(lp2883
(lp2884
(lp2885
S'N'
p2886
aF0.6632000000000005
aF-0.6461999999999989
aF-1.1013999999999982
aa(lp2887
S'H'
p2888
aF1.5671999999999968
aF-0.5902000000000015
aF-0.6543999999999954
aa(lp2889
S'CA'
p2890
aF-0.5398000000000025
aF-0.48920000000000247
aF-0.29340000000000543
aa(lp2891
S'C'
p2892
aF-0.4877999999999956
aF0.7918000000000035
aF0.5285999999999973
aa(lp2893
S'O'
p2894
aF-1.2027999999999992
aF0.9337999999999994
aF1.5206000000000017
aa(lp2895
S'CB'
p2896
aF-0.7287999999999955
aF-1.6942000000000008
aF0.6156000000000006
aa(lp2897
S'HA'
p2898
aF-1.3938000000000017
aF-0.4182000000000045
aF-0.9673999999999978
aa(lp2899
S'1HB'
p2900
aF-1.6307999999999965
aF-1.5621999999999958
aF1.2125999999999948
aa(lp2901
S'2HB'
p2902
aF-0.8228000000000038
aF-2.596200000000002
aF0.010599999999996612
aa(lp2903
S'3HB'
p2904
aF0.13220000000000892
aF-1.7891999999999997
aF1.276600000000002
aaaa(lp2905
(lp2906
(lp2907
S'N'
p2908
aF-1.3006
aF-0.05840000000000039
aF0.12440000000000069
aa(lp2909
S'H'
p2910
aF-1.1266
aF0.9336
aF0.20240000000000008
aa(lp2911
S'CA'
p2912
aF-0.18759999999999952
aF-0.9884000000000002
aF0.2763999999999999
aa(lp2913
S'C'
p2914
aF1.1503999999999999
aF-0.2633999999999996
aF0.2003999999999994
aa(lp2915
S'O'
p2916
aF1.4643999999999997
aF0.3766000000000001
aF-0.8036000000000001
aa(lp2917
S'CB'
p2918
aF-0.25959999999999955
aF-2.0773999999999995
aF-0.7836000000000005
aa(lp2919
S'HA'
p2920
aF-0.26259999999999967
aF-1.4484000000000001
aF1.2613999999999994
aa(lp2921
S'1HB'
p2922
aF0.5774
aF-2.7643999999999997
aF-0.6575999999999993
aa(lp2923
S'2HB'
p2924
aF-1.1966000000000003
aF-2.6253999999999995
aF-0.6795999999999995
aa(lp2925
S'3HB'
p2926
aF-0.21259999999999987
aF-1.6253999999999997
aF-1.7736000000000007
aaaa(lp2927
(lp2928
(lp2929
S'N'
p2930
aF-0.06699999999999988
aF-0.05339999999999989
aF1.3652000000000004
aa(lp2931
S'H'
p2932
aF-0.532
aF0.8325999999999993
aF1.2312
aa(lp2933
S'CA'
p2934
aF0.671
aF-0.6433999999999997
aF0.25519999999999926
aa(lp2935
S'C'
p2936
aF0.41099999999999987
aF0.11059999999999981
aF-1.0417999999999996
aa(lp2937
S'O'
p2938
aF-0.48300000000000004
aF-0.2463999999999995
aF-1.8098000000000003
aa(lp2939
S'CB'
p2940
aF0.305
aF-2.112400000000001
aF0.09620000000000033
aa(lp2941
S'HA'
p2942
aF1.736
aF-0.567400000000001
aF0.4782
aa(lp2943
S'1HB'
p2944
aF0.865
aF-2.538400000000001
aF-0.7358000000000005
aa(lp2945
S'2HB'
p2946
aF0.5509999999999999
aF-2.6494
aF1.0121999999999989
aa(lp2947
S'3HB'
p2948
aF-0.762
aF-2.2013999999999996
aF-0.10080000000000063
aaaa(lp2949
(lp2950
(lp2951
S'N'
p2952
aF0.5967999999999998
aF0.381800000000004
aF-1.0294
aa(lp2953
S'H'
p2954
aF1.4027999999999996
aF-0.14719999999999228
aF-1.3323999999999991
aa(lp2955
S'CA'
p2956
aF0.3638000000000001
aF0.5647999999999967
aF0.3975999999999996
aa(lp2957
S'C'
p2958
aF-1.0571999999999995
aF0.16780000000000544
aF0.7785999999999997
aa(lp2959
S'O'
p2960
aF-1.3062
aF-0.9672000000000139
aF1.1855999999999998
aa(lp2961
S'CB'
p2962
aF0.6337999999999997
aF2.007800000000009
aF0.7986000000000011
aa(lp2963
S'HA'
p2964
aF1.0497999999999998
aF-0.08620000000001365
aF0.9396000000000011
aa(lp2965
S'1HB'
p2966
aF0.45579999999999976
aF2.12879999999999
aF1.866599999999999
aa(lp2967
S'2HB'
p2968
aF1.6708000000000003
aF2.25979999999999
aF0.5735999999999997
aa(lp2969
S'3HB'
p2970
aF-0.028200000000000267
aF2.6697999999999866
aF0.24260000000000026
aaaa(lp2971
(lp2972
(lp2973
S'N'
p2974
aF-0.9032000000000038
aF0.25240000000000007
aF-0.6270000000000003
aa(lp2975
S'H'
p2976
aF-1.8382000000000063
aF-0.12659999999999055
aF-0.590999999999999
aa(lp2977
S'CA'
p2978
aF-0.20319999999998678
aF0.5353999999999871
aF0.6210000000000008
aa(lp2979
S'C'
p2980
aF1.0557999999999992
aF-0.31360000000000243
aF0.7509999999999998
aa(lp2981
S'O'
p2982
aF1.8887999999999976
aF-0.34759999999999425
aF-0.1540000000000013
aa(lp2983
S'CB'
p2984
aF-1.1232000000000029
aF0.30240000000001144
aF1.810000000000001
aa(lp2985
S'HA'
p2986
aF0.09980000000001049
aF1.5824000000000127
aF0.6090000000000003
aa(lp2987
S'1HB'
p2988
aF-0.5861999999999965
aF0.5183999999999912
aF2.733000000000001
aa(lp2989
S'2HB'
p2990
aF-1.9911999999999979
aF0.9583999999999889
aF1.7320000000000015
aa(lp2991
S'3HB'
p2992
aF-1.453199999999987
aF-0.7355999999999995
aF1.8160000000000012
aaaa(lp2993
(lp2994
(lp2995
S'N'
p2996
aF-0.5798000000000016
aF0.3906
aF-1.0067999999999997
aa(lp2997
S'H'
p2998
aF0.2652000000000008
aF0.43959999999999994
aF-1.5578000000000016
aa(lp2999
S'CA'
p3000
aF-0.5257999999999996
aF0.7376
aF0.40819999999999923
aa(lp3001
S'C'
p3002
aF0.43219999999999886
aF-0.17440000000000003
aF1.163200000000002
aa(lp3003
S'O'
p3004
aF0.4082000000000015
aF-1.3934
aF0.9932000000000001
aa(lp3005
S'CB'
p3006
aF-1.9158000000000002
aF0.6686000000000001
aF1.0241999999999991
aa(lp3007
S'HA'
p3008
aF-0.1517999999999992
aF1.7576000000000003
aF0.4932000000000001
aa(lp3009
S'1HB'
p3010
aF-1.8597999999999992
aF0.9306
aF2.0801999999999965
aa(lp3011
S'2HB'
p3012
aF-2.5758
aF1.3696000000000002
aF0.5112000000000008
aa(lp3013
S'3HB'
p3014
aF-2.3097999999999983
aF-0.3404
aF0.9211999999999974
aaaa(lp3015
(lp3016
(lp3017
S'N'
p3018
aF-0.879400000000004
aF0.5569999999999993
aF0.706399999999985
aa(lp3019
S'H'
p3020
aF-0.8824000000000041
aF1.3540000000000034
aF1.3274000000000228
aa(lp3021
S'CA'
p3022
aF0.3656000000000006
aF-0.16800000000000204
aF0.487399999999991
aa(lp3023
S'C'
p3024
aF0.6636000000000024
aF-0.3150000000000005
aF-0.9995999999999754
aa(lp3025
S'O'
p3026
aF0.732600000000005
aF-1.4280000000000002
aF-1.5216000000000236
aa(lp3027
S'CB'
p3028
aF0.3066000000000031
aF-1.5359999999999971
aF1.1524000000000114
aa(lp3029
S'HA'
p3030
aF1.1765999999999934
aF0.4070000000000008
aF0.93539999999997
aa(lp3031
S'1HB'
p3032
aF1.2436000000000007
aF-2.0650000000000004
aF0.9794000000000096
aa(lp3033
S'2HB'
p3034
aF0.15160000000000196
aF-1.4129999999999996
aF2.2244000000000144
aa(lp3035
S'3HB'
p3036
aF-0.517399999999995
aF-2.110000000000002
aF0.730399999999986
aaaa(lp3037
(lp3038
(lp3039
S'N'
p3040
aF0.6130000000000051
aF0.914000000000003
aF-0.38079999999999786
aa(lp3041
S'H'
p3042
aF1.5249999999999972
aF1.339
aF-0.4668000000000035
aa(lp3043
S'CA'
p3044
aF0.4599999999999993
aF-0.27699999999999947
aF0.4462000000000003
aa(lp3045
S'C'
p3046
aF-1.0089999999999946
aF-0.6420000000000015
aF0.6192000000000022
aa(lp3047
S'O'
p3048
aF-1.589000000000007
aF-1.3340000000000019
aF-0.21780000000000116
aa(lp3049
S'CB'
p3050
aF1.1160000000000054
aF-0.06699999999999867
aF1.8031999999999997
aa(lp3051
S'HA'
p3052
aF0.9529999999999943
aF-1.106999999999998
aF-0.059799999999999895
aa(lp3053
S'1HB'
p3054
aF0.9930000000000005
aF-0.9649999999999948
aF2.409200000000001
aa(lp3055
S'2HB'
p3056
aF2.178000000000003
aF0.1349999999999995
aF1.6661999999999992
aa(lp3057
S'3HB'
p3058
aF0.6480000000000017
aF0.7770000000000026
aF2.3071999999999973
aaaa(lp3059
(lp3060
(lp3061
S'N'
p3062
aF-0.44759999999999855
aF1.0816000000000088
aF-0.28500000000000225
aa(lp3063
S'H'
p3064
aF-1.0076000000000007
aF1.0305999999999926
aF0.5539999999999964
aa(lp3065
S'CA'
p3066
aF0.8854
aF0.4906000000000006
aF-0.286000000000007
aa(lp3067
S'C'
p3068
aF0.8244
aF-1.0054000000000087
aF-0.008999999999991851
aa(lp3069
S'O'
p3070
aF-0.2546000000000007
aF-1.5973999999999933
aF0.02600000000000475
aa(lp3071
S'CB'
p3072
aF1.7724000000000004
aF1.1826000000000079
aF0.7389999999999987
aa(lp3073
S'HA'
p3074
aF1.3163999999999974
aF0.630599999999987
aF-1.2769999999999926
aa(lp3075
S'1HB'
p3076
aF2.7634
aF0.7305999999999813
aF0.7269999999999982
aa(lp3077
S'2HB'
p3078
aF1.8523999999999987
aF2.2416000000000054
aF0.4939999999999941
aa(lp3079
S'3HB'
p3080
aF1.3364000000000005
aF1.0725999999999942
aF1.7309999999999888
aaaa(lp3081
(lp3082
(lp3083
S'N'
p3084
aF0.9968000000000019
aF0.4052000000000078
aF-0.6202000000000003
aa(lp3085
S'H'
p3086
aF1.8718000000000017
aF0.8442000000000007
aF-0.3692000000000001
aa(lp3087
S'CA'
p3088
aF0.31879999999999753
aF-0.4368000000000052
aF0.35780000000000023
aa(lp3089
S'C'
p3090
aF-1.1431999999999989
aF-0.035799999999994725
aF0.5118000000000003
aa(lp3091
S'O'
p3092
aF-2.0442000000000022
aF-0.7768000000000086
aF0.11979999999999988
aa(lp3093
S'CB'
p3094
aF1.029800000000003
aF-0.3667999999999836
aF1.7017999999999998
aa(lp3095
S'HA'
p3096
aF0.34680000000000333
aF-1.4647999999999968
aF-0.0031999999999555288
aa(lp3097
S'1HB'
p3098
aF0.5118000000000025
aF-1.0007999999999981
aF2.4208
aa(lp3099
S'2HB'
p3100
aF2.0578000000000016
aF-0.7127999999999872
aF1.5877999999999999
aa(lp3101
S'3HB'
p3102
aF1.0308000000000006
aF0.661200000000008
aF2.0587999999999997
aaaa(lp3103
(lp3104
(lp3105
S'N'
p3106
aF1.1784000000000003
aF0.16380000000000033
aF0.01579999999999944
aa(lp3107
S'H'
p3108
aF2.0324000000000004
aF-0.05820000000000007
aF0.506799999999999
aa(lp3109
S'CA'
p3110
aF-0.03360000000000057
aF-0.5852000000000002
aF0.32480000000000053
aa(lp3111
S'C'
p3112
aF-1.2776
aF0.26579999999999976
aF0.1068000000000005
aa(lp3113
S'O'
p3114
aF-1.8996
aF0.21380000000000016
aF-0.9541999999999995
aa(lp3115
S'CB'
p3116
aF0.012399999999999701
aF-1.0991999999999995
aF1.756799999999999
aa(lp3117
S'HA'
p3118
aF-0.08759999999999993
aF-1.4362000000000001
aF-0.3542000000000015
aa(lp3119
S'1HB'
p3120
aF-0.8996000000000003
aF-1.6571999999999993
aF1.9717999999999989
aa(lp3121
S'2HB'
p3122
aF0.8754000000000001
aF-1.7531999999999994
aF1.8807999999999978
aa(lp3123
S'3HB'
p3124
aF0.09239999999999979
aF-0.25719999999999993
aF2.442799999999999
aaaa(lp3125
(lp3126
(lp3127
S'N'
p3128
aF0.46559999999999996
aF0.9957999999999998
aF0.7600000000000005
aa(lp3129
S'H'
p3130
aF-0.19940000000000008
aF0.9927999999999997
aF1.5209999999999995
aa(lp3131
S'CA'
p3132
aF0.7766
aF-0.2591999999999991
aF0.08499999999999977
aa(lp3133
S'C'
p3134
aF-0.46339999999999987
aF-0.8532000000000004
aF-0.5699999999999996
aa(lp3135
S'O'
p3136
aF-0.5793999999999999
aF-0.8762000000000001
aF-1.7959999999999998
aa(lp3137
S'CB'
p3138
aF1.3846000000000005
aF-1.2521999999999978
aF1.0639999999999996
aa(lp3139
S'HA'
p3140
aF1.5016000000000005
aF-0.04919999999999827
aF-0.7020000000000002
aa(lp3141
S'1HB'
p3142
aF1.6106000000000005
aF-2.1831999999999985
aF0.5449999999999997
aa(lp3143
S'2HB'
p3144
aF2.3025999999999995
aF-0.8361999999999974
aF1.4809999999999994
aa(lp3145
S'3HB'
p3146
aF0.6775999999999998
aF-1.4481999999999993
aF1.8689999999999998
aaaa(lp3147
(lp3148
(lp3149
S'N'
p3150
aF0.7935999999999979
aF-0.8300000000000012
aF-0.46880000000000444
aa(lp3151
S'H'
p3152
aF0.3515999999999977
aF-1.7300000000000069
aF-0.5938000000000045
aa(lp3153
S'CA'
p3154
aF0.03359999999999985
aF0.3809999999999974
aF-0.7547999999999917
aa(lp3155
S'C'
p3156
aF-0.15039999999999765
aF1.2250000000000056
aF0.4991999999999991
aa(lp3157
S'O'
p3158
aF-1.0283999999999978
aF0.9540000000000048
aF1.3182000000000016
aa(lp3159
S'CB'
p3160
aF-1.3184000000000005
aF0.02699999999999818
aF-1.3578000000000003
aa(lp3161
S'HA'
p3162
aF0.5985999999999976
aF0.9720000000000055
aF-1.4757999999999953
aa(lp3163
S'1HB'
p3164
aF-1.8734000000000002
aF0.9409999999999996
aF-1.5668000000000035
aa(lp3165
S'2HB'
p3166
aF-1.1693999999999996
aF-0.5270000000000039
aF-2.2847999999999926
aa(lp3167
S'3HB'
p3168
aF-1.880399999999998
aF-0.5860000000000014
aF-0.6558000000000022
aaaa(lp3169
(lp3170
(lp3171
S'N'
p3172
aF-0.8276000000000001
aF0.8517999999999987
aF0.26980000000000076
aa(lp3173
S'H'
p3174
aF-1.7806
aF1.0178000000000025
aF-0.019200000000000727
aa(lp3175
S'CA'
p3176
aF-0.33160000000000006
aF-0.5172000000000011
aF0.33280000000000315
aa(lp3177
S'C'
p3178
aF1.1884
aF-0.5572000000000003
aF0.24279999999999974
aa(lp3179
S'O'
p3180
aF1.7514
aF-0.7951999999999998
aF-0.8262000000000029
aa(lp3181
S'CB'
p3182
aF-0.9486000000000001
aF-1.3561999999999999
aF-0.7762000000000058
aa(lp3183
S'HA'
p3184
aF-0.6206
aF-0.9382000000000005
aF1.295799999999997
aa(lp3185
S'1HB'
p3186
aF-0.5686
aF-2.376199999999996
aF-0.7162000000000035
aa(lp3187
S'2HB'
p3188
aF-2.0336
aF-1.3661999999999979
aF-0.6641999999999968
aa(lp3189
S'3HB'
p3190
aF-0.6886000000000001
aF-0.9281999999999954
aF-1.7432000000000045
aaaa(lp3191
(lp3192
(lp3193
S'N'
p3194
aF-1.3444000000000003
aF0.4024000000000004
aF-0.066
aa(lp3195
S'H'
p3196
aF-1.343399999999999
aF0.8683999999999997
aF-0.9620000000000001
aa(lp3197
S'CA'
p3198
aF-0.3534000000000006
aF-0.6346000000000004
aF0.196
aa(lp3199
S'C'
p3200
aF0.9966000000000008
aF-0.02860000000000045
aF0.559
aa(lp3201
S'O'
p3202
aF2.044599999999999
aF-0.6075999999999994
aF0.273
aa(lp3203
S'CB'
p3204
aF-0.21440000000000126
aF-1.5516
aF-1.0110000000000001
aa(lp3205
S'HA'
p3206
aF-0.6953999999999994
aF-1.2225999999999995
aF1.048
aa(lp3207
S'1HB'
p3208
aF0.5286000000000008
aF-2.3206
aF-0.7999999999999999
aa(lp3209
S'2HB'
p3210
aF-1.1743999999999986
aF-2.0226
aF-1.222
aa(lp3211
S'3HB'
p3212
aF0.10160000000000124
aF-0.9695999999999995
aF-1.875
aaaa(lp3213
(lp3214
(lp3215
S'N'
p3216
aF-0.2422000000000003
aF-0.8808
aF0.9464000000000006
aa(lp3217
S'H'
p3218
aF-0.9911999999999999
aF-1.4547999999999999
aF0.5884
aa(lp3219
S'CA'
p3220
aF-0.19319999999999993
aF0.5311999999999999
aF0.5833999999999993
aa(lp3221
S'C'
p3222
aF0.8708
aF0.7911999999999997
aF-0.4746000000000006
aa(lp3223
S'O'
p3224
aF0.5558000000000001
aF1.0132
aF-1.6435999999999993
aa(lp3225
S'CB'
p3226
aF0.0658
aF1.3862000000000003
aF1.8154000000000003
aa(lp3227
S'HA'
p3228
aF-1.1602
aF0.8051999999999999
aF0.1603999999999992
aa(lp3229
S'1HB'
p3230
aF0.09879999999999992
aF2.4372000000000007
aF1.5283999999999995
aa(lp3231
S'2HB'
p3232
aF-0.7342000000000002
aF1.2331999999999999
aF2.5394000000000005
aa(lp3233
S'3HB'
p3234
aF1.0178
aF1.1012000000000002
aF2.2614
aaaa(lp3235
(lp3236
(lp3237
S'N'
p3238
aF-0.20579999999999984
aF1.2501999999999998
aF0.6654000000000007
aa(lp3239
S'H'
p3240
aF0.47119999999999995
aF1.1102
aF1.4013999999999995
aa(lp3241
S'CA'
p3242
aF-0.08379999999999996
aF0.4832000000000003
aF-0.5685999999999993
aa(lp3243
S'C'
p3244
aF-0.07979999999999995
aF-1.0148000000000001
aF-0.28760000000000036
aa(lp3245
S'O'
p3246
aF-0.1018000000000002
aF-1.8288
aF-1.2106000000000006
aa(lp3247
S'CB'
p3248
aF1.1792
aF0.8831999999999998
aF-1.318600000000001
aa(lp3249
S'HA'
p3250
aF-0.9498000000000001
aF0.7032
aF-1.1915999999999987
aa(lp3251
S'1HB'
p3252
aF1.2562
aF0.30120000000000013
aF-2.2366
aa(lp3253
S'2HB'
p3254
aF1.1352
aF1.9442000000000002
aF-1.5635999999999985
aa(lp3255
S'3HB'
p3256
aF2.0492
aF0.6912
aF-0.6925999999999999
aaaa(lp3257
(lp3258
(lp3259
S'N'
p3260
aF-0.8236000000000001
aF0.3628000000000008
aF1.0038000000000005
aa(lp3261
S'H'
p3262
aF-1.2646
aF0.7947999999999993
aF0.20379999999999987
aa(lp3263
S'CA'
p3264
aF0.49539999999999995
aF-0.2382000000000001
aF0.8477999999999997
aa(lp3265
S'C'
p3266
aF0.6734
aF-0.8231999999999993
aF-0.5462000000000005
aa(lp3267
S'O'
p3268
aF0.9194
aF-0.09620000000000065
aF-1.5091999999999994
aa(lp3269
S'CB'
p3270
aF0.7173999999999999
aF-1.3112000000000006
aF1.9048000000000003
aa(lp3271
S'HA'
p3272
aF1.2424
aF0.5458000000000005
aF0.9798000000000002
aa(lp3273
S'1HB'
p3274
aF1.7064
aF-1.7502000000000006
aF1.7758000000000007
aa(lp3275
S'2HB'
p3276
aF0.6443999999999999
aF-0.8652000000000009
aF2.8967999999999994
aa(lp3277
S'3HB'
p3278
aF-0.03960000000000008
aF-2.0862000000000007
aF1.7988000000000004
aaaa(lp3279
(lp3280
(lp3281
S'N'
p3282
aF-0.7345999999999988
aF0.7530000000000001
aF0.9366000000000003
aa(lp3283
S'H'
p3284
aF-1.2745999999999982
aF1.1090000000000018
aF0.16060000000000052
aa(lp3285
S'CA'
p3286
aF0.07439999999999863
aF-0.4450000000000003
aF0.7485999999999997
aa(lp3287
S'C'
p3288
aF0.38539999999999863
aF-0.6739999999999995
aF-0.7254000000000005
aa(lp3289
S'O'
p3290
aF1.5493999999999999
aF-0.7430000000000021
aF-1.1204
aa(lp3291
S'CB'
p3292
aF-0.6315999999999973
aF-1.658999999999999
aF1.3346
aa(lp3293
S'HA'
p3294
aF1.0203999999999964
aF-0.30100000000000193
aF1.2706
aa(lp3295
S'1HB'
p3296
aF-0.014599999999999991
aF-2.5459999999999994
aF1.1856000000000009
aa(lp3297
S'2HB'
p3298
aF-0.7946000000000011
aF-1.5050000000000026
aF2.4006000000000007
aa(lp3299
S'3HB'
p3300
aF-1.5906000000000007
aF-1.7980000000000018
aF0.8366000000000007
aaaa(lp3301
(lp3302
(lp3303
S'N'
p3304
aF0.32180000000000175
aF1.0291999999999994
aF0.6446000000000012
aa(lp3305
S'H'
p3306
aF0.742799999999994
aF1.8811999999999998
aF0.30260000000000253
aa(lp3307
S'CA'
p3308
aF0.6408000000000044
aF-0.232800000000001
aF-0.012400000000002364
aa(lp3309
S'C'
p3310
aF-0.5392000000000025
aF-1.1957999999999984
aF0.04259999999999735
aa(lp3311
S'O'
p3312
aF-1.1661999999999977
aF-1.4817999999999998
aF-0.9773999999999987
aa(lp3313
S'CB'
p3314
aF1.8698000000000037
aF-0.8658000000000001
aF0.6236000000000004
aa(lp3315
S'HA'
p3316
aF0.8537999999999982
aF-0.024800000000002598
aF-1.061400000000002
aa(lp3317
S'1HB'
p3318
aF2.094799999999998
aF-1.8068000000000026
aF0.12159999999999796
aa(lp3319
S'2HB'
p3320
aF2.719799999999998
aF-0.18980000000000175
aF0.5245999999999966
aa(lp3321
S'3HB'
p3322
aF1.6768000000000058
aF-1.0538000000000025
aF1.6786
aaaa(lp3323
(lp3324
(lp3325
S'N'
p3326
aF-0.4720000000000002
aF-1.1796000000000002
aF-0.04699999999999996
aa(lp3327
S'H'
p3328
aF-1.3299999999999998
aF-1.6566000000000005
aF-0.28599999999999987
aa(lp3329
S'CA'
p3330
aF-0.31799999999999984
aF0.2254000000000002
aF-0.40299999999999986
aa(lp3331
S'C'
p3332
aF0.6059999999999999
aF0.9434000000000002
aF0.5719999999999998
aa(lp3333
S'O'
p3334
aF1.514
aF1.6674000000000002
aF0.16399999999999987
aa(lp3335
S'CB'
p3336
aF-1.675
aF0.9133999999999991
aF-0.4490000000000001
aa(lp3337
S'HA'
p3338
aF0.137
aF0.2764000000000004
aF-1.3930000000000005
aa(lp3339
S'1HB'
p3340
aF-1.543
aF1.961399999999999
aF-0.716
aa(lp3341
S'2HB'
p3342
aF-2.3049999999999997
aF0.42539999999999956
aF-1.1930000000000003
aa(lp3343
S'3HB'
p3344
aF-2.1499999999999995
aF0.8453999999999995
aF0.5279999999999998
aaaa(lp3345
(lp3346
(lp3347
S'N'
p3348
aF1.2343999999999995
aF-0.270000000000001
aF0.37660000000000055
aa(lp3349
S'H'
p3350
aF1.754399999999999
aF-0.2109999999999999
aF1.2406000000000013
aa(lp3351
S'CA'
p3352
aF-0.21960000000000135
aF-0.17499999999999855
aF0.41559999999999847
aa(lp3353
S'C'
p3354
aF-0.781599999999999
aF0.22900000000000137
aF-0.9414000000000009
aa(lp3355
S'O'
p3356
aF-1.9875999999999983
aF0.42699999999999816
aF-1.0913999999999995
aa(lp3357
S'CB'
p3358
aF-0.6576000000000002
aF0.8149999999999998
aF1.484600000000001
aa(lp3359
S'HA'
p3360
aF-0.617600000000001
aF-1.1590000000000003
aF0.6616000000000006
aa(lp3361
S'1HB'
p3362
aF-1.7465999999999986
aF0.8749999999999986
aF1.5005999999999993
aa(lp3363
S'2HB'
p3364
aF-0.2976000000000008
aF0.4820000000000014
aF2.4586000000000015
aa(lp3365
S'3HB'
p3366
aF-0.2435999999999987
aF1.7969999999999993
aF1.2615999999999985
aaaa(lp3367
(lp3368
(lp3369
S'N'
p3370
aF-0.4587999999999993
aF-0.9247999999999976
aF-0.7551999999999998
aa(lp3371
S'H'
p3372
aF-1.2448000000000008
aF-0.35479999999999734
aF-0.47820000000000007
aa(lp3373
S'CA'
p3374
aF0.8402000000000001
aF-0.6938000000000031
aF-0.1341999999999998
aa(lp3375
S'C'
p3376
aF0.9291999999999987
aF0.7102000000000004
aF0.44979999999999987
aa(lp3377
S'O'
p3378
aF-0.06579999999999855
aF1.2631999999999977
aF0.9177999999999998
aa(lp3379
S'CB'
p3380
aF1.9572000000000045
aF-0.9187999999999974
aF-1.1421999999999999
aa(lp3381
S'HA'
p3382
aF0.955200000000002
aF-1.4037999999999968
aF0.6848000000000002
aa(lp3383
S'1HB'
p3384
aF2.9202000000000057
aF-0.7428000000000026
aF-0.6642
aa(lp3385
S'2HB'
p3386
aF1.9162000000000006
aF-1.9457999999999984
aF-1.5072
aa(lp3387
S'3HB'
p3388
aF1.8362000000000023
aF-0.23179999999999978
aF-1.9782
aaaa(lp3389
(lp3390
(lp3391
S'N'
p3392
aF0.8470000000000002
aF0.5702
aF0.6674
aa(lp3393
S'H'
p3394
aF0.4560000000000003
aF1.3512
aF1.1734
aa(lp3395
S'CA'
p3396
aF0.07500000000000005
aF-0.6617999999999999
aF0.5553999999999999
aa(lp3397
S'C'
p3398
aF-0.8940000000000003
aF-0.6008
aF-0.6186
aa(lp3399
S'O'
p3400
aF-0.4840000000000001
aF-0.6588
aF-1.7776
aa(lp3401
S'CB'
p3402
aF-0.6780000000000002
aF-0.9338
aF1.8494
aa(lp3403
S'HA'
p3404
aF0.7700000000000002
aF-1.4817999999999998
aF0.3724000000000333
aa(lp3405
S'1HB'
p3406
aF-1.2500000000000002
aF-1.8567999999999998
aF1.7504
aa(lp3407
S'2HB'
p3408
aF0.031999999999999904
aF-1.0338000000000003
aF2.6704
aa(lp3409
S'3HB'
p3410
aF-1.3570000000000004
aF-0.10780000000000003
aF2.0554
aaaa(lp3411
(lp3412
(lp3413
S'N'
p3414
aF-0.4943999999999903
aF0.3603999999999985
aF-1.2301999999999977
aa(lp3415
S'H'
p3416
aF-0.17939999999999262
aF-0.36959999999999127
aF-1.8532000000000024
aa(lp3417
S'CA'
p3418
aF0.301600000000002
aF0.6794000000000011
aF-0.050199999999998204
aa(lp3419
S'C'
p3420
aF0.25759999999999084
aF-0.4526000000000039
aF0.9667999999999977
aa(lp3421
S'O'
p3422
aF0.11459999999999007
aF-0.21760000000000446
aF2.1668000000000007
aa(lp3423
S'CB'
p3424
aF-0.18340000000001172
aF1.9763999999999982
aF0.580800000000002
aa(lp3425
S'HA'
p3426
aF1.3376000000000032
aF0.8063999999999965
aF-0.3652000000000031
aa(lp3427
S'1HB'
p3428
aF0.42060000000000175
aF2.2014000000000067
aF1.4598
aa(lp3429
S'2HB'
p3430
aF-0.09139999999999879
aF2.7894000000000005
aF-0.1402000000000016
aa(lp3431
S'3HB'
p3432
aF-1.2263999999999897
aF1.8704000000000036
aF0.8747999999999989
aaaa(lp3433
(lp3434
(lp3435
S'N'
p3436
aF0.3847999999999985
aF-0.34560000000000457
aF-1.2920000000000074
aa(lp3437
S'H'
p3438
aF1.3237999999999985
aF0.012399999999999523
aF-1.197999999999999
aa(lp3439
S'CA'
p3440
aF-0.6691999999999965
aF0.19140000000000157
aF-0.4389999999999985
aa(lp3441
S'C'
p3442
aF-0.5362000000000009
aF-0.3205999999999989
aF0.9900000000000035
aa(lp3443
S'O'
p3444
aF-0.5031999999999996
aF0.46240000000000236
aF1.9390000000000014
aa(lp3445
S'CB'
p3446
aF-2.0381999999999962
aF-0.1606000000000023
aF-1.0020000000000011
aa(lp3447
S'HA'
p3448
aF-0.5651999999999973
aF1.2764000000000024
aF-0.41600000000000237
aa(lp3449
S'1HB'
p3450
aF-2.8141999999999996
aF0.24739999999999895
aF-0.35400000000000476
aa(lp3451
S'2HB'
p3452
aF-2.1402
aF0.2623999999999995
aF-2.0009999999999963
aa(lp3453
S'3HB'
p3454
aF-2.1421999999999954
aF-1.242600000000003
aF-1.0540000000000078
aaaa(lp3455
(lp3456
(lp3457
S'N'
p3458
aF0.2355999999999998
aF0.9311999999999998
aF0.4735999999999976
aa(lp3459
S'H'
p3460
aF-0.2774000000000001
aF1.7471999999999988
aF0.776600000000002
aa(lp3461
S'CA'
p3462
aF-0.09839999999999982
aF0.3162000000000013
aF-0.8053999999999988
aa(lp3463
S'C'
p3464
aF-0.21940000000000026
aF-1.195799999999999
aF-0.6743999999999986
aa(lp3465
S'O'
p3466
aF0.35960000000000036
aF-1.7988000000000006
aF0.2295999999999978
aa(lp3467
S'CB'
p3468
aF0.9446000000000003
aF0.6751999999999996
aF-1.8543999999999983
aa(lp3469
S'HA'
p3470
aF-1.0663999999999998
aF0.7032000000000018
aF-1.1244000000000014
aa(lp3471
S'1HB'
p3472
aF0.6816000000000004
aF0.20820000000000077
aF-2.8033999999999963
aa(lp3473
S'2HB'
p3474
aF0.9786000000000001
aF1.7572000000000003
aF-1.9784000000000006
aa(lp3475
S'3HB'
p3476
aF1.9215999999999998
aF0.3162000000000013
aF-1.5324000000000026
aaaa(lp3477
(lp3478
(lp3479
S'N'
p3480
aF1.1056
aF-0.13240000000000265
aF0.5455999999999996
aa(lp3481
S'H'
p3482
aF0.7576
aF0.09660000000000366
aF1.4655999999999996
aa(lp3483
S'CA'
p3484
aF0.24860000000000002
aF-0.8723999999999975
aF-0.3744000000000004
aa(lp3485
S'C'
p3486
aF-0.6914000000000001
aF0.06259999999999763
aF-1.123399999999999
aa(lp3487
S'O'
p3488
aF-1.4203999999999999
aF0.8455999999999989
aF-0.5133999999999996
aa(lp3489
S'CB'
p3490
aF-0.5443999999999999
aF-1.9303999999999975
aF0.37760000000000027
aa(lp3491
S'HA'
p3492
aF0.8866
aF-1.3633999999999973
aF-1.1093999999999997
aa(lp3493
S'1HB'
p3494
aF-1.1794000000000002
aF-2.4744000000000015
aF-0.322399999999999
aa(lp3495
S'2HB'
p3496
aF0.14160000000000003
aF-2.6264000000000025
aF0.8595999999999997
aa(lp3497
S'3HB'
p3498
aF-1.1654
aF-1.4513999999999982
aF1.1326000000000012
aaaa.